Certificate:
    Data:
        Version: 3 (0x2)
        Serial Number: 1 (0x1)
        Signature Algorithm: sha256WithRSAEncryption
        Issuer: CN=ca.epc.mnc230.mcc334.3gppnetwork.org, C=KO, ST=Seoul, L=Nowon, O=Open5GS, OU=Tests
        Validity
            Not Before: Apr  2 07:48:41 2025 GMT
            Not After : Mar 31 07:48:41 2035 GMT
        Subject: C=KO, ST=Seoul, O=Open5GS, OU=Tests, CN=mme.epc.mnc001.mcc001.3gppnetwork.org
        Subject Public Key Info:
            Public Key Algorithm: rsaEncryption
                Public-Key: (2048 bit)
                Modulus:
                    00:9e:68:fc:9f:64:d5:8e:d1:20:42:c5:67:41:14:
                    93:29:3c:55:36:96:a1:7e:12:d6:a0:88:15:1e:49:
                    84:ec:c9:b5:2f:70:e4:77:f2:bc:3c:01:b4:9a:98:
                    7c:5f:f7:43:5f:56:b9:1c:03:dc:a5:af:7e:9a:ac:
                    43:c3:c8:40:12:ae:82:ec:b8:72:6d:a7:d2:89:34:
                    4b:73:91:4f:2c:26:c4:4d:52:05:df:47:92:f5:7c:
                    e3:72:d5:09:8b:7a:86:43:2f:a4:53:cd:e0:5a:e3:
                    13:89:16:e8:00:81:69:f4:52:b4:b7:a7:9a:1b:eb:
                    53:1e:a7:69:ba:ca:04:42:a8:b6:b8:05:58:77:fc:
                    5d:b3:06:a4:18:e1:fa:c9:9b:a2:5a:db:ff:8e:48:
                    0c:16:e9:98:fe:ea:27:34:38:56:be:5a:e5:11:71:
                    30:9f:d1:bd:b0:e3:ea:db:01:79:12:eb:cc:6a:01:
                    f5:75:d9:aa:0f:b1:1a:3e:2a:a7:26:cd:0c:9e:99:
                    7f:99:14:69:f7:6b:36:23:4a:94:52:0d:2d:bd:eb:
                    d1:13:90:f1:eb:5e:79:6f:ad:c0:ba:49:07:a1:59:
                    6f:3c:40:5f:83:ed:cf:5e:07:10:25:92:39:2f:b4:
                    2e:e6:c9:7a:2f:4d:09:de:8c:c4:96:76:c9:df:8e:
                    37:a7
                Exponent: 65537 (0x10001)
        X509v3 extensions:
            X509v3 Basic Constraints: 
                CA:FALSE
            X509v3 Subject Key Identifier: 
                9A:7B:50:52:92:99:B4:10:FC:37:55:D8:5E:49:F8:96:5C:5E:27:DA
            X509v3 Authority Key Identifier: 
                50:43:D2:74:AB:9D:C9:0D:66:2C:7C:25:02:82:6B:67:EC:A5:53:6A
    Signature Algorithm: sha256WithRSAEncryption
    Signature Value:
        9a:cd:9b:57:56:7a:58:63:88:4f:40:34:28:06:72:30:6c:27:
        d1:79:b6:b1:e6:bd:f5:05:d2:45:bf:ba:2c:87:4f:b2:0f:30:
        23:8e:10:c5:b6:f7:51:f2:48:4c:e3:1b:20:85:7f:17:51:b9:
        68:e0:1e:9d:c3:f0:07:9a:8f:9b:0f:f9:64:b1:b3:cf:72:ac:
        ac:84:19:6f:3c:1a:35:79:e9:b4:cb:1e:1d:83:16:4f:82:49:
        4c:c5:84:b7:cd:6e:3a:33:76:c4:91:95:34:42:be:b6:8a:77:
        39:b7:b8:e8:05:e9:d7:dc:48:62:d5:95:89:f5:e7:5d:de:88:
        f3:18:95:ea:0d:ca:d4:f0:61:31:46:fd:b7:85:5d:14:e0:cf:
        78:c3:3f:bb:5c:fd:af:08:4e:6e:52:62:6f:66:99:47:f7:69:
        03:0a:91:e9:ba:14:34:39:8d:22:e7:e4:3c:ad:68:a6:39:3b:
        c0:4f:15:28:9c:5d:24:1b:86:78:65:bc:f6:46:16:7a:a7:d4:
        35:cc:ad:e5:fe:ba:3b:07:6e:0b:fc:ae:52:fd:23:9b:cc:e6:
        30:53:30:42:0e:40:05:e7:06:32:6a:86:67:2a:fc:5c:4b:07:
        01:fa:1a:94:cc:fd:46:c0:25:6a:c5:f4:f2:81:d1:f4:48:cc:
        d0:b4:2c:31
-----BEGIN CERTIFICATE-----
MIIDtTCCAp2gAwIBAgIBATANBgkqhkiG9w0BAQsFADB+MS0wKwYDVQQDDCRjYS5l
cGMubW5jMjMwLm1jYzMzNC4zZ3BwbmV0d29yay5vcmcxCzAJBgNVBAYTAktPMQ4w
DAYDVQQIDAVTZW91bDEOMAwGA1UEBwwFTm93b24xEDAOBgNVBAoMB09wZW41R1Mx
DjAMBgNVBAsMBVRlc3RzMB4XDTI1MDQwMjA3NDg0MVoXDTM1MDMzMTA3NDg0MVow
bzELMAkGA1UEBhMCS08xDjAMBgNVBAgMBVNlb3VsMRAwDgYDVQQKDAdPcGVuNUdT
MQ4wDAYDVQQLDAVUZXN0czEuMCwGA1UEAwwlbW1lLmVwYy5tbmMwMDEubWNjMDAx
LjNncHBuZXR3b3JrLm9yZzCCASIwDQYJKoZIhvcNAQEBBQADggEPADCCAQoCggEB
AJ5o/J9k1Y7RIELFZ0EUkyk8VTaWoX4S1qCIFR5JhOzJtS9w5HfyvDwBtJqYfF/3
Q19WuRwD3KWvfpqsQ8PIQBKuguy4cm2n0ok0S3ORTywmxE1SBd9HkvV843LVCYt6
hkMvpFPN4FrjE4kW6ACBafRStLenmhvrUx6nabrKBEKotrgFWHf8XbMGpBjh+smb
olrb/45IDBbpmP7qJzQ4Vr5a5RFxMJ/RvbDj6tsBeRLrzGoB9XXZqg+xGj4qpybN
DJ6Zf5kUafdrNiNKlFINLb3r0ROQ8eteeW+twLpJB6FZbzxAX4Ptz14HECWSOS+0
LubJei9NCd6MxJZ2yd+ON6cCAwEAAaNNMEswCQYDVR0TBAIwADAdBgNVHQ4EFgQU
mntQUpKZtBD8N1XYXkn4llxeJ9owHwYDVR0jBBgwFoAUUEPSdKudyQ1mLHwlAoJr
Z+ylU2owDQYJKoZIhvcNAQELBQADggEBAJrNm1dWelhjiE9ANCgGcjBsJ9F5trHm
vfUF0kW/uiyHT7IPMCOOEMW291HySEzjGyCFfxdRuWjgHp3D8Aeaj5sP+WSxs89y
rKyEGW88GjV56bTLHh2DFk+CSUzFhLfNbjozdsSRlTRCvraKdzm3uOgF6dfcSGLV
lYn1513eiPMYleoNytTwYTFG/beFXRTgz3jDP7tc/a8ITm5SYm9mmUf3aQMKkem6
FDQ5jSLn5DytaKY5O8BPFSicXSQbhnhlvPZGFnqn1DXMreX+ujsHbgv8rlL9I5vM
5jBTMEIOQAXnBjJqhmcq/FxLBwH6GpTM/UbAJWrF9PKB0fRIzNC0LDE=
-----END CERTIFICATE-----
