Certificate:
    Data:
        Version: 3 (0x2)
        Serial Number: 2 (0x2)
        Signature Algorithm: sha256WithRSAEncryption
        Issuer: CN=ca.epc.mnc230.mcc334.3gppnetwork.org, C=KO, ST=Seoul, L=Nowon, O=Open5GS, OU=Tests
        Validity
            Not Before: Apr  2 07:48:41 2025 GMT
            Not After : Mar 31 07:48:41 2035 GMT
        Subject: C=KO, ST=Seoul, O=Open5GS, OU=Tests, CN=smf.epc.mnc001.mcc001.3gppnetwork.org
        Subject Public Key Info:
            Public Key Algorithm: rsaEncryption
                Public-Key: (2048 bit)
                Modulus:
                    00:d6:34:8d:59:3c:77:d1:78:26:e0:9c:8b:73:ce:
                    dc:3d:73:6f:55:12:c4:af:bd:7b:82:b6:a8:08:43:
                    0c:31:31:02:c3:5a:d7:37:12:bd:33:eb:71:3f:79:
                    28:bf:05:62:63:74:bf:3d:b5:01:64:cf:a9:ab:4c:
                    68:c1:3f:60:ef:fb:0c:c3:09:19:b4:14:4d:28:20:
                    6e:d8:ef:4b:fb:c8:d9:bf:cc:f6:9e:59:eb:d6:b5:
                    10:11:49:10:3a:35:e9:c6:f4:c6:67:42:70:ad:b3:
                    de:f2:cc:f2:85:3b:da:61:e9:c4:9b:4c:ca:1c:2c:
                    5d:aa:be:25:0a:47:46:96:83:ce:03:75:b2:ee:86:
                    36:06:db:d3:df:f2:1e:25:fe:b1:5f:df:51:62:d6:
                    9b:f7:68:a7:7d:56:13:3a:f8:20:c9:95:df:86:93:
                    97:96:fc:46:fd:2a:1b:91:0b:7c:83:eb:df:d9:d3:
                    c9:87:f1:e9:31:a1:12:2e:f3:6b:66:59:b0:6b:eb:
                    3b:27:38:0e:f0:34:5d:77:fc:59:f8:9f:b7:06:08:
                    cd:0d:40:db:1e:09:64:92:a2:82:b3:03:9b:56:5e:
                    d0:1d:ed:cb:75:9b:bb:4a:64:df:df:88:ce:a4:9a:
                    63:b8:e3:64:69:a5:9c:4b:9f:25:1e:f3:a4:f2:21:
                    90:d1
                Exponent: 65537 (0x10001)
        X509v3 extensions:
            X509v3 Basic Constraints: 
                CA:FALSE
            X509v3 Subject Key Identifier: 
                10:96:E2:E4:9E:FE:A8:CF:3A:89:54:82:25:51:DB:2F:90:40:95:76
            X509v3 Authority Key Identifier: 
                50:43:D2:74:AB:9D:C9:0D:66:2C:7C:25:02:82:6B:67:EC:A5:53:6A
    Signature Algorithm: sha256WithRSAEncryption
    Signature Value:
        21:f4:4d:9e:44:18:b8:ac:88:87:09:de:50:05:e1:74:fe:df:
        86:53:24:5b:57:54:57:e8:70:37:81:af:d6:20:0e:6f:ab:24:
        99:28:62:17:03:63:e8:7c:6e:9f:24:a9:78:5f:1e:87:08:78:
        4b:d2:3c:66:24:1a:1c:84:9e:69:35:8f:b2:c5:63:df:97:37:
        c3:e8:65:3a:a9:93:ce:ed:88:f8:ff:22:a3:33:ce:e6:b3:1b:
        41:92:c1:3c:e2:f3:09:a4:63:71:80:a7:d8:ad:e3:1d:89:0e:
        41:0d:7f:18:53:43:f6:fd:e4:ca:ec:a5:20:2d:2e:a1:39:4e:
        97:bb:7e:a3:75:31:dd:65:93:d1:01:aa:fb:ec:3b:d3:91:10:
        79:73:3c:7d:f8:7c:dc:10:59:83:83:f7:b4:d8:c9:71:47:83:
        ca:3e:79:fc:76:37:b2:65:12:fa:cd:44:b7:65:0d:c9:a1:f1:
        de:0b:b7:bd:af:6f:e3:bf:9b:41:03:93:5f:73:47:da:33:97:
        04:14:59:9a:28:96:88:29:29:c9:a8:99:3f:b7:fa:6d:15:0a:
        c9:82:09:65:93:fd:6d:32:44:81:df:48:e0:65:17:f5:2c:16:
        54:90:12:49:1e:b0:cf:ec:96:ea:e4:ec:a0:35:8f:81:90:89:
        db:ae:3e:3d
-----BEGIN CERTIFICATE-----
MIIDtTCCAp2gAwIBAgIBAjANBgkqhkiG9w0BAQsFADB+MS0wKwYDVQQDDCRjYS5l
cGMubW5jMjMwLm1jYzMzNC4zZ3BwbmV0d29yay5vcmcxCzAJBgNVBAYTAktPMQ4w
DAYDVQQIDAVTZW91bDEOMAwGA1UEBwwFTm93b24xEDAOBgNVBAoMB09wZW41R1Mx
DjAMBgNVBAsMBVRlc3RzMB4XDTI1MDQwMjA3NDg0MVoXDTM1MDMzMTA3NDg0MVow
bzELMAkGA1UEBhMCS08xDjAMBgNVBAgMBVNlb3VsMRAwDgYDVQQKDAdPcGVuNUdT
MQ4wDAYDVQQLDAVUZXN0czEuMCwGA1UEAwwlc21mLmVwYy5tbmMwMDEubWNjMDAx
LjNncHBuZXR3b3JrLm9yZzCCASIwDQYJKoZIhvcNAQEBBQADggEPADCCAQoCggEB
ANY0jVk8d9F4JuCci3PO3D1zb1USxK+9e4K2qAhDDDExAsNa1zcSvTPrcT95KL8F
YmN0vz21AWTPqatMaME/YO/7DMMJGbQUTSggbtjvS/vI2b/M9p5Z69a1EBFJEDo1
6cb0xmdCcK2z3vLM8oU72mHpxJtMyhwsXaq+JQpHRpaDzgN1su6GNgbb09/yHiX+
sV/fUWLWm/dop31WEzr4IMmV34aTl5b8Rv0qG5ELfIPr39nTyYfx6TGhEi7za2ZZ
sGvrOyc4DvA0XXf8WfiftwYIzQ1A2x4JZJKigrMDm1Ze0B3ty3Wbu0pk39+IzqSa
Y7jjZGmlnEufJR7zpPIhkNECAwEAAaNNMEswCQYDVR0TBAIwADAdBgNVHQ4EFgQU
EJbi5J7+qM86iVSCJVHbL5BAlXYwHwYDVR0jBBgwFoAUUEPSdKudyQ1mLHwlAoJr
Z+ylU2owDQYJKoZIhvcNAQELBQADggEBACH0TZ5EGLisiIcJ3lAF4XT+34ZTJFtX
VFfocDeBr9YgDm+rJJkoYhcDY+h8bp8kqXhfHocIeEvSPGYkGhyEnmk1j7LFY9+X
N8PoZTqpk87tiPj/IqMzzuazG0GSwTzi8wmkY3GAp9it4x2JDkENfxhTQ/b95Mrs
pSAtLqE5Tpe7fqN1Md1lk9EBqvvsO9OREHlzPH34fNwQWYOD97TYyXFHg8o+efx2
N7JlEvrNRLdlDcmh8d4Lt72vb+O/m0EDk19zR9ozlwQUWZoologpKcmomT+3+m0V
CsmCCWWT/W0yRIHfSOBlF/UsFlSQEkkesM/slurk7KA1j4GQiduuPj0=
-----END CERTIFICATE-----
