Certificate:
    Data:
        Version: 3 (0x2)
        Serial Number: 2 (0x2)
        Signature Algorithm: sha256WithRSAEncryption
        Issuer: CN=ca.localdomain, C=KO, ST=Seoul, L=Nowon, O=Open5GS, OU=Tests
        Validity
            Not Before: Oct 20 06:43:58 2019 GMT
            Not After : Oct 17 06:43:58 2029 GMT
        Subject: C=KO, ST=Seoul, O=Open5GS, OU=Tests, CN=hss.localdomain
        Subject Public Key Info:
            Public Key Algorithm: rsaEncryption
                RSA Public-Key: (1024 bit)
                Modulus:
                    00:d3:e7:ba:6d:14:65:af:df:90:e5:4a:53:56:a1:
                    f6:89:2e:cb:ee:ce:d6:73:9f:48:b6:96:78:67:a7:
                    87:18:b8:ab:c3:0b:31:b3:02:92:48:ed:49:ac:40:
                    c1:13:3b:13:58:50:cc:2e:59:44:e9:7e:31:02:14:
                    f0:18:82:95:10:e4:37:b2:5d:14:19:1d:4b:8f:e9:
                    1f:45:75:cf:0a:e0:8f:7b:e1:70:7b:ab:e4:af:2b:
                    7c:4d:7f:00:d8:eb:cf:f3:96:ab:fc:04:4f:21:ad:
                    d8:c4:94:05:02:ff:f3:12:48:88:9e:ce:cf:37:29:
                    e0:28:39:37:62:05:ed:6d:5d
                Exponent: 65537 (0x10001)
        X509v3 extensions:
            X509v3 Basic Constraints: 
                CA:FALSE
            Netscape Comment: 
                OpenSSL Generated Certificate
            X509v3 Subject Key Identifier: 
                AB:0F:C4:B8:B7:6B:56:12:F5:D4:A3:29:B7:D9:5E:3C:DD:8B:79:DD
            X509v3 Authority Key Identifier: 
                keyid:C5:38:DC:BA:0F:C3:29:6E:3D:99:07:96:D0:87:12:FD:B8:48:CC:37

    Signature Algorithm: sha256WithRSAEncryption
         43:95:ee:57:3f:4d:ad:bf:42:6c:48:ae:f8:2f:db:f6:cf:2e:
         53:a2:3d:48:0a:48:a4:2c:2a:7c:fa:ec:b1:bd:06:a1:21:a5:
         38:d8:00:05:81:25:91:51:e2:e6:a8:67:a8:c2:f6:5d:2a:f0:
         40:fe:20:d3:82:2d:d9:8c:4c:61:b7:43:87:7f:fe:e4:a1:b6:
         fd:54:35:13:4f:63:a5:6b:4a:01:aa:25:e9:80:27:eb:2e:a2:
         18:e0:36:37:a5:57:09:67:ed:8f:1e:13:fd:b8:b2:d7:4e:cf:
         93:d4:bf:75:02:38:4e:d4:4a:9c:35:fb:a8:0b:3a:ba:03:1a:
         e6:9e
-----BEGIN CERTIFICATE-----
MIICsjCCAhugAwIBAgIBAjANBgkqhkiG9w0BAQsFADBoMRcwFQYDVQQDDA5jYS5s
b2NhbGRvbWFpbjELMAkGA1UEBhMCS08xDjAMBgNVBAgMBVNlb3VsMQ4wDAYDVQQH
DAVOb3dvbjEQMA4GA1UECgwHT3BlbjVHUzEOMAwGA1UECwwFVGVzdHMwHhcNMTkx
MDIwMDY0MzU4WhcNMjkxMDE3MDY0MzU4WjBZMQswCQYDVQQGEwJLTzEOMAwGA1UE
CAwFU2VvdWwxEDAOBgNVBAoMB09wZW41R1MxDjAMBgNVBAsMBVRlc3RzMRgwFgYD
VQQDDA9oc3MubG9jYWxkb21haW4wgZ8wDQYJKoZIhvcNAQEBBQADgY0AMIGJAoGB
ANPnum0UZa/fkOVKU1ah9okuy+7O1nOfSLaWeGenhxi4q8MLMbMCkkjtSaxAwRM7
E1hQzC5ZROl+MQIU8BiClRDkN7JdFBkdS4/pH0V1zwrgj3vhcHur5K8rfE1/ANjr
z/OWq/wETyGt2MSUBQL/8xJIiJ7Ozzcp4Cg5N2IF7W1dAgMBAAGjezB5MAkGA1Ud
EwQCMAAwLAYJYIZIAYb4QgENBB8WHU9wZW5TU0wgR2VuZXJhdGVkIENlcnRpZmlj
YXRlMB0GA1UdDgQWBBSrD8S4t2tWEvXUoym32V483Yt53TAfBgNVHSMEGDAWgBTF
ONy6D8Mpbj2ZB5bQhxL9uEjMNzANBgkqhkiG9w0BAQsFAAOBgQBDle5XP02tv0Js
SK74L9v2zy5Toj1ICkikLCp8+uyxvQahIaU42AAFgSWRUeLmqGeowvZdKvBA/iDT
gi3ZjExht0OHf/7kobb9VDUTT2Ola0oBqiXpgCfrLqIY4DY3pVcJZ+2PHhP9uLLX
Ts+T1L91AjhO1EqcNfuoCzq6Axrmng==
-----END CERTIFICATE-----
