Certificate:
    Data:
        Version: 3 (0x2)
        Serial Number: 2 (0x2)
        Signature Algorithm: sha256WithRSAEncryption
        Issuer: CN=ca.localdomain, C=KO, ST=Seoul, L=Nowon, O=Open5GS, OU=Tests
        Validity
            Not Before: Aug 22 00:39:17 2020 GMT
            Not After : Aug 20 00:39:17 2030 GMT
        Subject: C=KO, ST=Seoul, O=Open5GS, OU=Tests, CN=hss.localdomain
        Subject Public Key Info:
            Public Key Algorithm: rsaEncryption
                RSA Public-Key: (1024 bit)
                Modulus:
                    00:e8:b3:82:96:bd:4a:f6:30:2c:03:60:aa:82:65:
                    b0:15:32:5f:d3:90:0d:c0:1d:06:62:52:51:c7:12:
                    36:d7:5c:34:21:ac:4a:44:4d:9b:a5:22:9c:3e:86:
                    a8:ba:df:02:64:b6:74:f5:95:c4:71:e8:e0:28:1d:
                    2b:ea:06:94:fa:3c:f1:07:d3:23:55:b6:84:d4:00:
                    f4:28:08:18:be:c7:38:e1:b7:d9:b4:bf:d3:e1:d3:
                    d8:13:60:72:e1:e4:d3:31:37:b1:cf:b9:e1:c9:8d:
                    5e:e2:1c:54:a3:90:b1:69:6f:07:90:ff:68:86:69:
                    7d:ef:50:69:0d:9d:47:18:39
                Exponent: 65537 (0x10001)
        X509v3 extensions:
            X509v3 Basic Constraints: 
                CA:FALSE
            Netscape Comment: 
                OpenSSL Generated Certificate
            X509v3 Subject Key Identifier: 
                74:20:F9:E9:BD:E1:37:8A:9C:A9:AD:B4:B2:28:7D:44:22:0B:BD:0B
            X509v3 Authority Key Identifier: 
                keyid:64:FB:C8:D7:A3:20:17:DC:A8:3A:AA:4B:2B:85:CD:BD:3E:53:4B:09

    Signature Algorithm: sha256WithRSAEncryption
         ac:aa:85:5a:57:61:6d:7d:f3:c4:2a:b7:73:3f:e9:bc:b9:6d:
         0a:8f:35:24:13:66:46:14:5e:60:90:3e:32:95:72:5a:21:55:
         15:fe:ef:30:44:fb:fe:3e:cb:bf:f3:30:ce:3b:bb:4f:c1:64:
         41:ea:db:99:f2:ca:db:78:03:95:81:91:3c:fa:1d:9c:8a:55:
         eb:9d:6a:c1:b6:de:44:38:0f:99:b4:66:d5:4e:dd:e7:d5:ba:
         ff:f2:4b:f6:9a:94:53:55:36:4e:73:2d:da:d1:bb:0f:8f:fb:
         1a:22:43:28:6a:b4:5d:a3:40:2c:cf:7e:0d:3e:fb:60:ef:92:
         f3:0e
-----BEGIN CERTIFICATE-----
MIICsjCCAhugAwIBAgIBAjANBgkqhkiG9w0BAQsFADBoMRcwFQYDVQQDDA5jYS5s
b2NhbGRvbWFpbjELMAkGA1UEBhMCS08xDjAMBgNVBAgMBVNlb3VsMQ4wDAYDVQQH
DAVOb3dvbjEQMA4GA1UECgwHT3BlbjVHUzEOMAwGA1UECwwFVGVzdHMwHhcNMjAw
ODIyMDAzOTE3WhcNMzAwODIwMDAzOTE3WjBZMQswCQYDVQQGEwJLTzEOMAwGA1UE
CAwFU2VvdWwxEDAOBgNVBAoMB09wZW41R1MxDjAMBgNVBAsMBVRlc3RzMRgwFgYD
VQQDDA9oc3MubG9jYWxkb21haW4wgZ8wDQYJKoZIhvcNAQEBBQADgY0AMIGJAoGB
AOizgpa9SvYwLANgqoJlsBUyX9OQDcAdBmJSUccSNtdcNCGsSkRNm6UinD6GqLrf
AmS2dPWVxHHo4CgdK+oGlPo88QfTI1W2hNQA9CgIGL7HOOG32bS/0+HT2BNgcuHk
0zE3sc+54cmNXuIcVKOQsWlvB5D/aIZpfe9QaQ2dRxg5AgMBAAGjezB5MAkGA1Ud
EwQCMAAwLAYJYIZIAYb4QgENBB8WHU9wZW5TU0wgR2VuZXJhdGVkIENlcnRpZmlj
YXRlMB0GA1UdDgQWBBR0IPnpveE3ipyprbSyKH1EIgu9CzAfBgNVHSMEGDAWgBRk
+8jXoyAX3Kg6qksrhc29PlNLCTANBgkqhkiG9w0BAQsFAAOBgQCsqoVaV2FtffPE
KrdzP+m8uW0KjzUkE2ZGFF5gkD4ylXJaIVUV/u8wRPv+Psu/8zDOO7tPwWRB6tuZ
8srbeAOVgZE8+h2cilXrnWrBtt5EOA+ZtGbVTt3n1br/8kv2mpRTVTZOcy3a0bsP
j/saIkMoarRdo0Asz34NPvtg75LzDg==
-----END CERTIFICATE-----
