Certificate:
    Data:
        Version: 3 (0x2)
        Serial Number: 1 (0x1)
        Signature Algorithm: sha256WithRSAEncryption
        Issuer: CN=ca.localdomain, C=KO, ST=Seoul, L=Nowon, O=Open5GS, OU=Tests
        Validity
            Not Before: Oct 20 06:43:58 2019 GMT
            Not After : Oct 17 06:43:58 2029 GMT
        Subject: C=KO, ST=Seoul, O=Open5GS, OU=Tests, CN=mme.localdomain
        Subject Public Key Info:
            Public Key Algorithm: rsaEncryption
                RSA Public-Key: (1024 bit)
                Modulus:
                    00:b5:3a:31:ed:bf:fe:cd:e7:50:cc:94:ba:3d:fd:
                    2f:e6:cb:83:25:3d:82:93:26:57:b4:2f:6b:29:d9:
                    fd:80:c8:c5:82:9c:09:17:14:38:91:57:ac:72:b0:
                    86:d4:6f:bd:6b:fa:b9:60:51:9b:ab:6b:68:37:15:
                    c7:de:8b:bd:e8:da:5a:49:75:03:33:09:8e:49:e4:
                    d9:5b:3c:2f:ca:47:9b:95:d5:6f:16:e4:8d:39:b4:
                    39:dd:51:1a:55:27:68:b9:a0:24:ad:1c:18:48:bb:
                    49:54:ae:03:a3:0b:b8:e5:da:b4:c2:7f:09:a4:12:
                    8e:97:08:58:24:6a:4b:f4:87
                Exponent: 65537 (0x10001)
        X509v3 extensions:
            X509v3 Basic Constraints: 
                CA:FALSE
            Netscape Comment: 
                OpenSSL Generated Certificate
            X509v3 Subject Key Identifier: 
                20:74:06:F0:AF:F6:2D:90:D1:CB:8C:5C:AB:73:D7:45:99:31:DD:AA
            X509v3 Authority Key Identifier: 
                keyid:C5:38:DC:BA:0F:C3:29:6E:3D:99:07:96:D0:87:12:FD:B8:48:CC:37

    Signature Algorithm: sha256WithRSAEncryption
         0a:f5:fd:1f:19:52:9a:99:ec:34:67:e8:57:dc:61:73:c0:05:
         b0:53:e3:8f:66:86:c9:99:af:28:5a:2a:06:a8:53:b1:80:ea:
         5c:c9:ad:93:ec:b8:b4:b0:e4:04:8b:85:1b:08:93:f2:71:b1:
         21:ab:80:40:e4:27:c6:c5:7a:56:f2:d2:33:6c:f0:1d:f4:99:
         85:55:60:9c:eb:d3:b8:e3:4b:e5:be:1e:d2:39:d5:55:6f:4c:
         20:07:c8:24:1c:21:70:e4:54:17:0b:a5:66:17:be:8b:5c:73:
         ca:5e:42:6e:27:15:18:69:dc:c6:49:97:d7:66:e0:a8:ad:9c:
         f1:b7
-----BEGIN CERTIFICATE-----
MIICsjCCAhugAwIBAgIBATANBgkqhkiG9w0BAQsFADBoMRcwFQYDVQQDDA5jYS5s
b2NhbGRvbWFpbjELMAkGA1UEBhMCS08xDjAMBgNVBAgMBVNlb3VsMQ4wDAYDVQQH
DAVOb3dvbjEQMA4GA1UECgwHT3BlbjVHUzEOMAwGA1UECwwFVGVzdHMwHhcNMTkx
MDIwMDY0MzU4WhcNMjkxMDE3MDY0MzU4WjBZMQswCQYDVQQGEwJLTzEOMAwGA1UE
CAwFU2VvdWwxEDAOBgNVBAoMB09wZW41R1MxDjAMBgNVBAsMBVRlc3RzMRgwFgYD
VQQDDA9tbWUubG9jYWxkb21haW4wgZ8wDQYJKoZIhvcNAQEBBQADgY0AMIGJAoGB
ALU6Me2//s3nUMyUuj39L+bLgyU9gpMmV7QvaynZ/YDIxYKcCRcUOJFXrHKwhtRv
vWv6uWBRm6traDcVx96LvejaWkl1AzMJjknk2Vs8L8pHm5XVbxbkjTm0Od1RGlUn
aLmgJK0cGEi7SVSuA6MLuOXatMJ/CaQSjpcIWCRqS/SHAgMBAAGjezB5MAkGA1Ud
EwQCMAAwLAYJYIZIAYb4QgENBB8WHU9wZW5TU0wgR2VuZXJhdGVkIENlcnRpZmlj
YXRlMB0GA1UdDgQWBBQgdAbwr/YtkNHLjFyrc9dFmTHdqjAfBgNVHSMEGDAWgBTF
ONy6D8Mpbj2ZB5bQhxL9uEjMNzANBgkqhkiG9w0BAQsFAAOBgQAK9f0fGVKamew0
Z+hX3GFzwAWwU+OPZobJma8oWioGqFOxgOpcya2T7Li0sOQEi4UbCJPycbEhq4BA
5CfGxXpW8tIzbPAd9JmFVWCc69O440vlvh7SOdVVb0wgB8gkHCFw5FQXC6VmF76L
XHPKXkJuJxUYadzGSZfXZuCorZzxtw==
-----END CERTIFICATE-----
