Certificate:
    Data:
        Version: 3 (0x2)
        Serial Number: 1 (0x1)
        Signature Algorithm: sha256WithRSAEncryption
        Issuer: CN=ca.localdomain, C=KO, ST=Seoul, L=Nowon, O=Open5GS, OU=Tests
        Validity
            Not Before: Aug 22 00:39:17 2020 GMT
            Not After : Aug 20 00:39:17 2030 GMT
        Subject: C=KO, ST=Seoul, O=Open5GS, OU=Tests, CN=mme.localdomain
        Subject Public Key Info:
            Public Key Algorithm: rsaEncryption
                RSA Public-Key: (1024 bit)
                Modulus:
                    00:9c:69:25:fc:ee:7f:11:e0:81:f7:b5:51:8f:01:
                    b8:9e:01:74:03:3e:a5:25:de:6f:28:66:05:6f:7b:
                    ab:86:0f:09:fc:94:7b:e8:aa:9f:0b:5f:32:27:46:
                    f0:ca:e2:12:f3:5d:03:80:e9:9a:1d:f0:20:d6:5c:
                    1b:4b:65:d4:66:e3:b7:63:19:6e:b1:e8:db:6c:24:
                    df:24:2c:50:f2:1c:8a:33:c1:f7:27:b8:3c:6e:c6:
                    90:98:ac:43:67:00:6b:3d:ab:39:49:3d:d5:74:77:
                    6a:0e:38:4e:41:cd:e4:15:63:27:76:b5:9c:75:f8:
                    cb:6f:cc:5e:f3:a7:68:ef:a5
                Exponent: 65537 (0x10001)
        X509v3 extensions:
            X509v3 Basic Constraints: 
                CA:FALSE
            Netscape Comment: 
                OpenSSL Generated Certificate
            X509v3 Subject Key Identifier: 
                92:69:1E:3F:9F:E2:40:2F:81:24:05:B4:13:AA:8A:65:5C:7C:71:1D
            X509v3 Authority Key Identifier: 
                keyid:64:FB:C8:D7:A3:20:17:DC:A8:3A:AA:4B:2B:85:CD:BD:3E:53:4B:09

    Signature Algorithm: sha256WithRSAEncryption
         74:fc:32:ee:e6:2b:a5:f5:a4:71:64:49:ff:eb:6f:01:30:32:
         b7:61:62:97:e1:2c:0f:50:62:a8:71:9a:bd:8b:d8:0d:4b:28:
         ea:b4:5f:1c:30:3e:4c:23:2f:c5:5b:77:ed:48:c2:bb:b7:0c:
         d9:50:4d:7f:7f:a3:b9:1e:2c:19:33:1e:41:94:e1:14:1b:45:
         e8:ae:27:aa:5e:78:8e:67:67:19:69:48:e3:e4:c0:c3:a7:85:
         fd:fd:d6:62:6e:dd:1f:31:2f:bc:9a:d2:fa:82:eb:4b:3e:35:
         e0:90:db:ed:de:1a:68:33:6f:e6:90:9f:08:64:60:46:91:09:
         74:15
-----BEGIN CERTIFICATE-----
MIICsjCCAhugAwIBAgIBATANBgkqhkiG9w0BAQsFADBoMRcwFQYDVQQDDA5jYS5s
b2NhbGRvbWFpbjELMAkGA1UEBhMCS08xDjAMBgNVBAgMBVNlb3VsMQ4wDAYDVQQH
DAVOb3dvbjEQMA4GA1UECgwHT3BlbjVHUzEOMAwGA1UECwwFVGVzdHMwHhcNMjAw
ODIyMDAzOTE3WhcNMzAwODIwMDAzOTE3WjBZMQswCQYDVQQGEwJLTzEOMAwGA1UE
CAwFU2VvdWwxEDAOBgNVBAoMB09wZW41R1MxDjAMBgNVBAsMBVRlc3RzMRgwFgYD
VQQDDA9tbWUubG9jYWxkb21haW4wgZ8wDQYJKoZIhvcNAQEBBQADgY0AMIGJAoGB
AJxpJfzufxHggfe1UY8BuJ4BdAM+pSXebyhmBW97q4YPCfyUe+iqnwtfMidG8Mri
EvNdA4Dpmh3wINZcG0tl1Gbjt2MZbrHo22wk3yQsUPIcijPB9ye4PG7GkJisQ2cA
az2rOUk91XR3ag44TkHN5BVjJ3a1nHX4y2/MXvOnaO+lAgMBAAGjezB5MAkGA1Ud
EwQCMAAwLAYJYIZIAYb4QgENBB8WHU9wZW5TU0wgR2VuZXJhdGVkIENlcnRpZmlj
YXRlMB0GA1UdDgQWBBSSaR4/n+JAL4EkBbQTqoplXHxxHTAfBgNVHSMEGDAWgBRk
+8jXoyAX3Kg6qksrhc29PlNLCTANBgkqhkiG9w0BAQsFAAOBgQB0/DLu5iul9aRx
ZEn/628BMDK3YWKX4SwPUGKocZq9i9gNSyjqtF8cMD5MIy/FW3ftSMK7twzZUE1/
f6O5HiwZMx5BlOEUG0XorieqXniOZ2cZaUjj5MDDp4X9/dZibt0fMS+8mtL6gutL
PjXgkNvt3hpoM2/mkJ8IZGBGkQl0FQ==
-----END CERTIFICATE-----
