Certificate:
    Data:
        Version: 3 (0x2)
        Serial Number: 4 (0x4)
        Signature Algorithm: sha256WithRSAEncryption
        Issuer: CN=ca.localdomain, C=KO, ST=Seoul, L=Nowon, O=Open5GS, OU=Tests
        Validity
            Not Before: Oct 20 06:43:58 2019 GMT
            Not After : Oct 17 06:43:58 2029 GMT
        Subject: C=KO, ST=Seoul, O=Open5GS, OU=Tests, CN=pcrf.localdomain
        Subject Public Key Info:
            Public Key Algorithm: rsaEncryption
                RSA Public-Key: (1024 bit)
                Modulus:
                    00:c4:63:95:b8:b2:99:ca:4d:dd:ac:b8:e2:78:29:
                    43:03:8a:de:6b:05:99:97:b7:90:39:f8:f6:b8:20:
                    77:44:4b:1b:95:6c:ad:e1:5f:2c:48:a2:8a:d2:95:
                    72:0e:f9:e1:cf:70:4e:45:6e:71:7e:2a:41:29:93:
                    7a:12:01:73:0b:10:20:7a:38:66:9f:75:76:21:d6:
                    7d:0c:ea:35:47:16:d6:c3:9f:41:ec:e9:98:36:16:
                    84:9f:43:38:2b:b2:c8:d9:f3:6c:07:82:e4:ce:c8:
                    a3:f3:c3:60:13:f3:46:44:fa:f0:ee:a9:48:40:8f:
                    80:3e:60:73:ff:6d:59:03:2f
                Exponent: 65537 (0x10001)
        X509v3 extensions:
            X509v3 Basic Constraints: 
                CA:FALSE
            Netscape Comment: 
                OpenSSL Generated Certificate
            X509v3 Subject Key Identifier: 
                53:A8:0E:78:45:FB:38:A6:CF:30:E5:FF:BB:CA:E6:CF:A3:4A:DC:53
            X509v3 Authority Key Identifier: 
                keyid:C5:38:DC:BA:0F:C3:29:6E:3D:99:07:96:D0:87:12:FD:B8:48:CC:37

    Signature Algorithm: sha256WithRSAEncryption
         47:6b:2b:f9:03:8d:c1:fd:84:21:fe:3c:5b:8c:9d:c1:48:bc:
         ae:90:67:c5:ad:1a:80:e9:97:9c:c2:d4:31:1b:7d:4e:1a:72:
         09:fb:92:32:b3:82:79:59:cd:92:21:27:c7:34:c3:76:27:a8:
         11:33:cd:4a:ec:10:cb:44:89:da:47:1a:a4:6a:06:10:fb:f1:
         6a:de:d5:1a:15:de:4a:54:6f:29:b8:de:ec:20:f2:d1:c3:0c:
         9a:8e:97:46:8c:21:c3:63:7f:41:52:41:7e:73:47:43:0a:d1:
         86:0b:f0:fb:9a:1f:6d:b5:93:88:95:88:84:6d:28:8e:29:2e:
         66:9d
-----BEGIN CERTIFICATE-----
MIICszCCAhygAwIBAgIBBDANBgkqhkiG9w0BAQsFADBoMRcwFQYDVQQDDA5jYS5s
b2NhbGRvbWFpbjELMAkGA1UEBhMCS08xDjAMBgNVBAgMBVNlb3VsMQ4wDAYDVQQH
DAVOb3dvbjEQMA4GA1UECgwHT3BlbjVHUzEOMAwGA1UECwwFVGVzdHMwHhcNMTkx
MDIwMDY0MzU4WhcNMjkxMDE3MDY0MzU4WjBaMQswCQYDVQQGEwJLTzEOMAwGA1UE
CAwFU2VvdWwxEDAOBgNVBAoMB09wZW41R1MxDjAMBgNVBAsMBVRlc3RzMRkwFwYD
VQQDDBBwY3JmLmxvY2FsZG9tYWluMIGfMA0GCSqGSIb3DQEBAQUAA4GNADCBiQKB
gQDEY5W4spnKTd2suOJ4KUMDit5rBZmXt5A5+Pa4IHdESxuVbK3hXyxIoorSlXIO
+eHPcE5FbnF+KkEpk3oSAXMLECB6OGafdXYh1n0M6jVHFtbDn0Hs6Zg2FoSfQzgr
ssjZ82wHguTOyKPzw2AT80ZE+vDuqUhAj4A+YHP/bVkDLwIDAQABo3sweTAJBgNV
HRMEAjAAMCwGCWCGSAGG+EIBDQQfFh1PcGVuU1NMIEdlbmVyYXRlZCBDZXJ0aWZp
Y2F0ZTAdBgNVHQ4EFgQUU6gOeEX7OKbPMOX/u8rmz6NK3FMwHwYDVR0jBBgwFoAU
xTjcug/DKW49mQeW0IcS/bhIzDcwDQYJKoZIhvcNAQELBQADgYEAR2sr+QONwf2E
If48W4ydwUi8rpBnxa0agOmXnMLUMRt9ThpyCfuSMrOCeVnNkiEnxzTDdieoETPN
SuwQy0SJ2kcapGoGEPvxat7VGhXeSlRvKbje7CDy0cMMmo6XRowhw2N/QVJBfnNH
QwrRhgvw+5ofbbWTiJWIhG0ojikuZp0=
-----END CERTIFICATE-----
