Certificate:
    Data:
        Version: 3 (0x2)
        Serial Number: 4 (0x4)
        Signature Algorithm: sha256WithRSAEncryption
        Issuer: CN=ca.localdomain, C=KO, ST=Seoul, L=Nowon, O=Open5GS, OU=Tests
        Validity
            Not Before: Aug 22 00:39:17 2020 GMT
            Not After : Aug 20 00:39:17 2030 GMT
        Subject: C=KO, ST=Seoul, O=Open5GS, OU=Tests, CN=pcrf.localdomain
        Subject Public Key Info:
            Public Key Algorithm: rsaEncryption
                RSA Public-Key: (1024 bit)
                Modulus:
                    00:b9:1f:b3:a5:74:de:31:97:ac:fa:86:1d:65:86:
                    c7:be:b1:25:07:01:f3:69:21:7a:6d:ec:d7:c8:ec:
                    e2:c9:e8:71:a1:07:ce:0e:68:e5:0f:a9:ec:f3:5e:
                    5e:3e:a4:ea:27:f3:fa:65:36:2d:7c:ce:a8:70:cc:
                    34:db:51:b2:28:7b:03:bf:78:06:61:7c:44:81:17:
                    88:f9:c9:16:cb:2e:9f:21:4a:24:28:0a:0f:76:ef:
                    63:0f:05:a4:ee:52:64:1f:4f:0b:ec:4e:6c:1b:12:
                    40:43:75:ed:62:16:ec:6a:ba:15:dd:c4:b9:fa:a9:
                    de:2c:80:f5:84:c5:97:ec:7b
                Exponent: 65537 (0x10001)
        X509v3 extensions:
            X509v3 Basic Constraints: 
                CA:FALSE
            Netscape Comment: 
                OpenSSL Generated Certificate
            X509v3 Subject Key Identifier: 
                CD:C4:C9:C1:7F:D9:34:1F:DB:08:61:27:FC:59:A2:C2:CC:19:9A:7B
            X509v3 Authority Key Identifier: 
                keyid:64:FB:C8:D7:A3:20:17:DC:A8:3A:AA:4B:2B:85:CD:BD:3E:53:4B:09

    Signature Algorithm: sha256WithRSAEncryption
         24:3a:da:a7:50:b3:42:ab:e9:87:21:b2:d9:2b:a1:44:0b:5f:
         bd:ad:c9:8b:b1:ca:d5:2e:65:46:55:80:11:00:33:03:f9:04:
         b1:31:a2:c9:d2:41:e0:ec:73:bc:9a:3c:31:06:cc:d0:2d:73:
         1f:b4:93:1c:b0:99:dd:14:27:64:39:7e:c5:ab:53:48:c5:25:
         e8:88:fd:4e:b8:dd:64:88:b5:b4:89:8b:15:97:8b:e7:c9:fb:
         23:6c:ed:60:9b:2f:f0:99:7a:75:6c:8e:ea:09:c6:ba:ff:e9:
         81:3f:97:96:8b:00:58:5b:88:13:e8:8a:39:4c:f6:c9:06:d3:
         24:66
-----BEGIN CERTIFICATE-----
MIICszCCAhygAwIBAgIBBDANBgkqhkiG9w0BAQsFADBoMRcwFQYDVQQDDA5jYS5s
b2NhbGRvbWFpbjELMAkGA1UEBhMCS08xDjAMBgNVBAgMBVNlb3VsMQ4wDAYDVQQH
DAVOb3dvbjEQMA4GA1UECgwHT3BlbjVHUzEOMAwGA1UECwwFVGVzdHMwHhcNMjAw
ODIyMDAzOTE3WhcNMzAwODIwMDAzOTE3WjBaMQswCQYDVQQGEwJLTzEOMAwGA1UE
CAwFU2VvdWwxEDAOBgNVBAoMB09wZW41R1MxDjAMBgNVBAsMBVRlc3RzMRkwFwYD
VQQDDBBwY3JmLmxvY2FsZG9tYWluMIGfMA0GCSqGSIb3DQEBAQUAA4GNADCBiQKB
gQC5H7OldN4xl6z6hh1lhse+sSUHAfNpIXpt7NfI7OLJ6HGhB84OaOUPqezzXl4+
pOon8/plNi18zqhwzDTbUbIoewO/eAZhfESBF4j5yRbLLp8hSiQoCg9272MPBaTu
UmQfTwvsTmwbEkBDde1iFuxquhXdxLn6qd4sgPWExZfsewIDAQABo3sweTAJBgNV
HRMEAjAAMCwGCWCGSAGG+EIBDQQfFh1PcGVuU1NMIEdlbmVyYXRlZCBDZXJ0aWZp
Y2F0ZTAdBgNVHQ4EFgQUzcTJwX/ZNB/bCGEn/FmiwswZmnswHwYDVR0jBBgwFoAU
ZPvI16MgF9yoOqpLK4XNvT5TSwkwDQYJKoZIhvcNAQELBQADgYEAJDrap1CzQqvp
hyGy2SuhRAtfva3Ji7HK1S5lRlWAEQAzA/kEsTGiydJB4OxzvJo8MQbM0C1zH7ST
HLCZ3RQnZDl+xatTSMUl6Ij9TrjdZIi1tImLFZeL58n7I2ztYJsv8Jl6dWyO6gnG
uv/pgT+XlosAWFuIE+iKOUz2yQbTJGY=
-----END CERTIFICATE-----
