Certificate:
    Data:
        Version: 3 (0x2)
        Serial Number: 3 (0x3)
        Signature Algorithm: sha256WithRSAEncryption
        Issuer: CN=ca.localdomain, C=KO, ST=Seoul, L=Nowon, O=Open5GS, OU=Tests
        Validity
            Not Before: Oct 20 06:43:58 2019 GMT
            Not After : Oct 17 06:43:58 2029 GMT
        Subject: C=KO, ST=Seoul, O=Open5GS, OU=Tests, CN=pgw.localdomain
        Subject Public Key Info:
            Public Key Algorithm: rsaEncryption
                RSA Public-Key: (1024 bit)
                Modulus:
                    00:bf:bc:94:38:f4:03:a5:23:8c:21:ba:4e:5e:51:
                    f7:76:f5:e1:1e:43:fc:04:a0:f9:b9:9f:47:dd:d3:
                    b5:aa:83:e8:cb:d0:3c:56:0e:4d:fd:de:b6:93:fa:
                    eb:a3:94:4a:79:68:1d:84:61:cf:b7:d0:ac:d0:41:
                    ef:66:e0:8a:40:ec:b4:d2:5b:ce:cc:2c:cd:7d:7e:
                    87:73:b0:4b:4d:79:54:3b:a4:48:bb:19:4f:9f:7e:
                    30:e7:af:17:32:a3:95:af:c4:a5:19:8f:53:3c:16:
                    cd:54:9d:38:98:2b:0f:b7:cd:33:91:f0:ef:b8:d2:
                    9f:0e:fe:8e:77:9d:e8:ba:f3
                Exponent: 65537 (0x10001)
        X509v3 extensions:
            X509v3 Basic Constraints: 
                CA:FALSE
            Netscape Comment: 
                OpenSSL Generated Certificate
            X509v3 Subject Key Identifier: 
                EB:F6:EA:D3:F2:F2:C6:C6:83:EF:13:CD:AF:49:A8:ED:03:DF:7F:ED
            X509v3 Authority Key Identifier: 
                keyid:C5:38:DC:BA:0F:C3:29:6E:3D:99:07:96:D0:87:12:FD:B8:48:CC:37

    Signature Algorithm: sha256WithRSAEncryption
         3b:00:ef:c4:9f:69:c3:22:06:76:6f:70:88:50:1c:f3:a2:9a:
         68:00:34:fa:3a:68:b2:94:fe:7c:31:7d:4e:95:bd:47:4d:69:
         1f:76:32:64:83:1b:5b:11:71:bb:0a:7a:af:72:54:7a:dc:30:
         51:e5:93:27:8c:8a:51:e6:e5:15:53:70:14:85:3b:77:1a:87:
         ce:d0:6f:31:07:5d:14:30:d7:de:a0:b5:a7:a1:96:18:1a:fd:
         ea:9f:c2:ea:bb:72:52:84:b6:57:6d:70:93:35:64:d3:8b:82:
         1b:7b:ea:85:8a:fb:c6:b3:e0:66:ad:db:11:dd:5e:6e:22:dd:
         b4:23
-----BEGIN CERTIFICATE-----
MIICsjCCAhugAwIBAgIBAzANBgkqhkiG9w0BAQsFADBoMRcwFQYDVQQDDA5jYS5s
b2NhbGRvbWFpbjELMAkGA1UEBhMCS08xDjAMBgNVBAgMBVNlb3VsMQ4wDAYDVQQH
DAVOb3dvbjEQMA4GA1UECgwHT3BlbjVHUzEOMAwGA1UECwwFVGVzdHMwHhcNMTkx
MDIwMDY0MzU4WhcNMjkxMDE3MDY0MzU4WjBZMQswCQYDVQQGEwJLTzEOMAwGA1UE
CAwFU2VvdWwxEDAOBgNVBAoMB09wZW41R1MxDjAMBgNVBAsMBVRlc3RzMRgwFgYD
VQQDDA9wZ3cubG9jYWxkb21haW4wgZ8wDQYJKoZIhvcNAQEBBQADgY0AMIGJAoGB
AL+8lDj0A6UjjCG6Tl5R93b14R5D/ASg+bmfR93TtaqD6MvQPFYOTf3etpP666OU
SnloHYRhz7fQrNBB72bgikDstNJbzswszX1+h3OwS015VDukSLsZT59+MOevFzKj
la/EpRmPUzwWzVSdOJgrD7fNM5Hw77jSnw7+jned6LrzAgMBAAGjezB5MAkGA1Ud
EwQCMAAwLAYJYIZIAYb4QgENBB8WHU9wZW5TU0wgR2VuZXJhdGVkIENlcnRpZmlj
YXRlMB0GA1UdDgQWBBTr9urT8vLGxoPvE82vSajtA99/7TAfBgNVHSMEGDAWgBTF
ONy6D8Mpbj2ZB5bQhxL9uEjMNzANBgkqhkiG9w0BAQsFAAOBgQA7AO/En2nDIgZ2
b3CIUBzzoppoADT6OmiylP58MX1Olb1HTWkfdjJkgxtbEXG7CnqvclR63DBR5ZMn
jIpR5uUVU3AUhTt3GofO0G8xB10UMNfeoLWnoZYYGv3qn8Lqu3JShLZXbXCTNWTT
i4Ibe+qFivvGs+BmrdsR3V5uIt20Iw==
-----END CERTIFICATE-----
