Certificate:
    Data:
        Version: 3 (0x2)
        Serial Number: 3 (0x3)
        Signature Algorithm: sha256WithRSAEncryption
        Issuer: CN=ca.localdomain, C=KO, ST=Seoul, L=Nowon, O=Open5GS, OU=Tests
        Validity
            Not Before: Aug 22 00:39:17 2020 GMT
            Not After : Aug 20 00:39:17 2030 GMT
        Subject: C=KO, ST=Seoul, O=Open5GS, OU=Tests, CN=smf.localdomain
        Subject Public Key Info:
            Public Key Algorithm: rsaEncryption
                RSA Public-Key: (1024 bit)
                Modulus:
                    00:ad:d6:cb:88:33:51:23:72:f1:16:29:2a:df:b7:
                    75:d7:38:9e:da:18:b6:27:73:a8:60:ec:04:8f:d0:
                    cd:c6:2e:10:ff:bd:c3:c2:a3:d7:53:e7:9e:73:07:
                    07:a9:59:16:b1:7f:92:79:4d:d8:ee:5a:c7:ed:ef:
                    37:83:8a:7d:94:08:41:0b:34:68:27:a5:4b:7d:cb:
                    29:fb:85:c0:21:6e:17:72:32:29:7a:28:be:94:31:
                    56:d2:85:9f:4b:b1:33:6f:f9:eb:01:9c:e7:2f:68:
                    94:6b:91:58:a7:80:04:94:3c:b3:19:96:91:31:f7:
                    c4:81:98:2b:85:8f:5c:f0:fd
                Exponent: 65537 (0x10001)
        X509v3 extensions:
            X509v3 Basic Constraints: 
                CA:FALSE
            Netscape Comment: 
                OpenSSL Generated Certificate
            X509v3 Subject Key Identifier: 
                91:4B:EF:65:02:0D:C8:85:FA:4A:3F:29:C0:10:3C:1B:AE:E4:AD:A4
            X509v3 Authority Key Identifier: 
                keyid:64:FB:C8:D7:A3:20:17:DC:A8:3A:AA:4B:2B:85:CD:BD:3E:53:4B:09

    Signature Algorithm: sha256WithRSAEncryption
         a3:6e:4f:00:bd:1a:62:b9:86:0f:35:f6:18:8d:15:61:a2:bc:
         05:07:f1:73:8d:70:6f:e1:34:f1:ae:87:26:87:13:0b:c8:d8:
         29:16:70:02:12:73:36:f9:de:43:26:12:7d:9f:d2:20:7c:e2:
         76:47:0b:14:ba:67:e5:5a:0d:22:3b:00:c8:35:ab:dd:b1:9a:
         e5:75:b0:86:89:02:15:32:b3:e9:48:c3:e0:38:e1:56:4c:fd:
         aa:12:96:00:6d:a6:c3:ab:b0:8c:4b:ab:b2:4c:c2:08:26:ab:
         d6:3f:26:95:4a:da:b8:dd:9a:f8:fe:b9:c2:e3:7a:a3:2f:2c:
         7f:df
-----BEGIN CERTIFICATE-----
MIICsjCCAhugAwIBAgIBAzANBgkqhkiG9w0BAQsFADBoMRcwFQYDVQQDDA5jYS5s
b2NhbGRvbWFpbjELMAkGA1UEBhMCS08xDjAMBgNVBAgMBVNlb3VsMQ4wDAYDVQQH
DAVOb3dvbjEQMA4GA1UECgwHT3BlbjVHUzEOMAwGA1UECwwFVGVzdHMwHhcNMjAw
ODIyMDAzOTE3WhcNMzAwODIwMDAzOTE3WjBZMQswCQYDVQQGEwJLTzEOMAwGA1UE
CAwFU2VvdWwxEDAOBgNVBAoMB09wZW41R1MxDjAMBgNVBAsMBVRlc3RzMRgwFgYD
VQQDDA9zbWYubG9jYWxkb21haW4wgZ8wDQYJKoZIhvcNAQEBBQADgY0AMIGJAoGB
AK3Wy4gzUSNy8RYpKt+3ddc4ntoYtidzqGDsBI/QzcYuEP+9w8Kj11PnnnMHB6lZ
FrF/knlN2O5ax+3vN4OKfZQIQQs0aCelS33LKfuFwCFuF3IyKXoovpQxVtKFn0ux
M2/56wGc5y9olGuRWKeABJQ8sxmWkTH3xIGYK4WPXPD9AgMBAAGjezB5MAkGA1Ud
EwQCMAAwLAYJYIZIAYb4QgENBB8WHU9wZW5TU0wgR2VuZXJhdGVkIENlcnRpZmlj
YXRlMB0GA1UdDgQWBBSRS+9lAg3IhfpKPynAEDwbruStpDAfBgNVHSMEGDAWgBRk
+8jXoyAX3Kg6qksrhc29PlNLCTANBgkqhkiG9w0BAQsFAAOBgQCjbk8AvRpiuYYP
NfYYjRVhorwFB/FzjXBv4TTxrocmhxMLyNgpFnACEnM2+d5DJhJ9n9IgfOJ2RwsU
umflWg0iOwDINavdsZrldbCGiQIVMrPpSMPgOOFWTP2qEpYAbabDq7CMS6uyTMII
JqvWPyaVStq43Zr4/rnC43qjLyx/3w==
-----END CERTIFICATE-----
