Certificate:
    Data:
        Version: 3 (0x2)
        Serial Number: 2 (0x2)
    Signature Algorithm: sha256WithRSAEncryption
        Issuer: CN=ca.localdomain, C=KO, ST=Seoul, L=Nowon, O=NextEPC, OU=Tests
        Validity
            Not Before: Aug 17 00:58:21 2018 GMT
            Not After : Aug 14 00:58:21 2028 GMT
        Subject: C=KO, ST=Seoul, O=NextEPC, OU=Tests, CN=hss.localdomain
        Subject Public Key Info:
            Public Key Algorithm: rsaEncryption
                Public-Key: (1024 bit)
                Modulus:
                    00:e4:c5:4e:3a:92:46:30:6a:6b:b1:c9:e8:9a:40:
                    35:57:6c:3b:4f:88:3e:bf:69:aa:71:24:a9:54:96:
                    2f:6f:ca:77:a2:d9:3a:cb:d5:71:cc:89:46:c1:94:
                    51:a8:a8:88:5b:58:8b:f2:b7:c7:66:c9:5e:93:b9:
                    92:7f:c3:bd:9a:b9:93:6c:b9:c3:6a:cd:19:17:b9:
                    36:b7:11:db:1b:a1:b0:8e:76:46:53:a8:0f:e5:89:
                    f7:2d:c1:6d:8e:12:35:c9:7f:16:6f:83:22:eb:e1:
                    b3:8c:d5:a4:75:3d:63:70:d5:6f:40:c3:ab:86:9c:
                    43:53:6e:f2:a9:60:a8:11:2d
                Exponent: 65537 (0x10001)
        X509v3 extensions:
            X509v3 Basic Constraints: 
                CA:FALSE
            Netscape Comment: 
                OpenSSL Generated Certificate
            X509v3 Subject Key Identifier: 
                36:1B:B0:35:30:C2:27:9D:F8:9C:19:0C:72:81:9B:D1:EB:4F:FA:77
            X509v3 Authority Key Identifier: 
                keyid:5E:12:26:BE:1D:E2:DF:28:D1:8D:08:CE:3D:FF:16:40:7E:18:44:AE

    Signature Algorithm: sha256WithRSAEncryption
         4f:54:46:2a:0c:79:5d:e3:78:b5:90:96:9e:9d:1c:b3:01:87:
         da:f6:d5:b1:ca:e8:0b:21:2f:b9:4f:06:0a:67:12:64:5d:b8:
         4b:a2:1e:66:72:2d:74:50:4f:ce:18:14:ee:77:e5:13:0d:f6:
         cf:96:9e:0f:44:6b:a0:1b:ab:70:91:f8:af:7e:fc:e0:71:1a:
         a0:96:7c:81:17:8e:3f:60:89:70:45:30:83:bb:76:da:2a:2a:
         01:40:bb:26:f3:69:19:64:da:78:ac:a5:bb:05:ca:7d:9b:b7:
         80:e6:38:04:17:f2:38:ab:38:f8:db:88:2a:bf:2a:a0:35:9d:
         30:b4
-----BEGIN CERTIFICATE-----
MIICsjCCAhugAwIBAgIBAjANBgkqhkiG9w0BAQsFADBoMRcwFQYDVQQDDA5jYS5s
b2NhbGRvbWFpbjELMAkGA1UEBhMCS08xDjAMBgNVBAgMBVNlb3VsMQ4wDAYDVQQH
DAVOb3dvbjEQMA4GA1UECgwHTmV4dEVQQzEOMAwGA1UECwwFVGVzdHMwHhcNMTgw
ODE3MDA1ODIxWhcNMjgwODE0MDA1ODIxWjBZMQswCQYDVQQGEwJLTzEOMAwGA1UE
CAwFU2VvdWwxEDAOBgNVBAoMB05leHRFUEMxDjAMBgNVBAsMBVRlc3RzMRgwFgYD
VQQDDA9oc3MubG9jYWxkb21haW4wgZ8wDQYJKoZIhvcNAQEBBQADgY0AMIGJAoGB
AOTFTjqSRjBqa7HJ6JpANVdsO0+IPr9pqnEkqVSWL2/Kd6LZOsvVccyJRsGUUaio
iFtYi/K3x2bJXpO5kn/DvZq5k2y5w2rNGRe5NrcR2xuhsI52RlOoD+WJ9y3BbY4S
Ncl/Fm+DIuvhs4zVpHU9Y3DVb0DDq4acQ1Nu8qlgqBEtAgMBAAGjezB5MAkGA1Ud
EwQCMAAwLAYJYIZIAYb4QgENBB8WHU9wZW5TU0wgR2VuZXJhdGVkIENlcnRpZmlj
YXRlMB0GA1UdDgQWBBQ2G7A1MMInnficGQxygZvR60/6dzAfBgNVHSMEGDAWgBRe
Eia+HeLfKNGNCM49/xZAfhhErjANBgkqhkiG9w0BAQsFAAOBgQBPVEYqDHld43i1
kJaenRyzAYfa9tWxyugLIS+5TwYKZxJkXbhLoh5mci10UE/OGBTud+UTDfbPlp4P
RGugG6twkfivfvzgcRqglnyBF44/YIlwRTCDu3baKioBQLsm82kZZNp4rKW7Bcp9
m7eA5jgEF/I4qzj424gqvyqgNZ0wtA==
-----END CERTIFICATE-----
