Certificate:
    Data:
        Version: 3 (0x2)
        Serial Number: 2 (0x2)
        Signature Algorithm: sha1WithRSAEncryption
        Issuer: CN=ca.localdomain, C=KO, ST=Seoul, L=Nowon, O=NextEPC, OU=Tests
        Validity
            Not Before: Aug 16 13:40:41 2017 GMT
            Not After : Aug 16 13:40:41 2018 GMT
        Subject: C=KO, ST=Seoul, O=NextEPC, OU=Tests, CN=hss.localdomain
        Subject Public Key Info:
            Public Key Algorithm: rsaEncryption
            RSA Public Key: (1024 bit)
                Modulus (1024 bit):
                    00:c1:7f:93:8b:fc:66:1b:f1:55:0b:4c:53:8f:9c:
                    b2:ac:76:46:75:dc:7a:2e:c9:cb:8c:11:64:ae:d0:
                    59:fe:19:3e:44:32:12:73:ec:06:78:cd:45:da:46:
                    2d:54:ca:e4:00:9e:a2:38:d9:84:07:16:46:bb:b1:
                    ad:60:dc:32:63:0a:3c:60:f8:9d:98:7c:3c:3a:83:
                    1d:ed:2b:d9:50:1b:91:e9:5a:c0:1b:96:b0:75:3b:
                    29:a7:ac:c9:7f:29:4f:3b:6b:f8:ab:24:be:13:dc:
                    83:aa:7c:45:8e:b9:d4:df:01:b7:74:07:11:3b:c6:
                    1f:23:f2:de:fc:eb:27:0d:6b
                Exponent: 65537 (0x10001)
        X509v3 extensions:
            X509v3 Basic Constraints: 
                CA:FALSE
            Netscape Comment: 
                OpenSSL Generated Certificate
            X509v3 Subject Key Identifier: 
                54:F8:A5:57:44:DC:AC:AE:F8:56:59:EC:FD:E5:2A:98:D7:2B:9A:4F
            X509v3 Authority Key Identifier: 
                keyid:F3:7A:C1:F1:A8:53:AF:C7:88:6C:37:E2:EF:06:20:A9:62:24:2D:E0

    Signature Algorithm: sha1WithRSAEncryption
        70:f1:2b:d9:68:0a:4c:73:66:b5:4a:e4:fb:11:40:a6:f1:ba:
        79:2e:7b:8a:16:48:c8:28:17:63:c7:2a:03:1a:60:7c:24:d3:
        ac:51:19:d7:10:2b:68:f0:f8:54:16:28:9f:62:ca:3b:f2:99:
        51:10:91:da:e3:0e:98:d8:80:37:e7:de:13:f3:b6:f9:72:8d:
        49:d5:4a:c9:fb:0a:c3:8f:56:ee:08:91:e0:aa:1d:51:b8:59:
        de:cd:74:12:9e:44:8c:8a:ab:82:f5:05:58:3f:d4:70:d1:b5:
        d8:a0:97:f2:48:a2:f1:10:a2:68:bf:91:e1:5d:82:fb:37:71:
        38:f7
-----BEGIN CERTIFICATE-----
MIICsjCCAhugAwIBAgIBAjANBgkqhkiG9w0BAQUFADBoMRcwFQYDVQQDEw5jYS5s
b2NhbGRvbWFpbjELMAkGA1UEBhMCS08xDjAMBgNVBAgTBVNlb3VsMQ4wDAYDVQQH
EwVOb3dvbjEQMA4GA1UEChMHTmV4dEVQQzEOMAwGA1UECxMFVGVzdHMwHhcNMTcw
ODE2MTM0MDQxWhcNMTgwODE2MTM0MDQxWjBZMQswCQYDVQQGEwJLTzEOMAwGA1UE
CBMFU2VvdWwxEDAOBgNVBAoTB05leHRFUEMxDjAMBgNVBAsTBVRlc3RzMRgwFgYD
VQQDEw9oc3MubG9jYWxkb21haW4wgZ8wDQYJKoZIhvcNAQEBBQADgY0AMIGJAoGB
AMF/k4v8ZhvxVQtMU4+csqx2RnXcei7Jy4wRZK7QWf4ZPkQyEnPsBnjNRdpGLVTK
5ACeojjZhAcWRruxrWDcMmMKPGD4nZh8PDqDHe0r2VAbkelawBuWsHU7KaesyX8p
Tztr+KskvhPcg6p8RY651N8Bt3QHETvGHyPy3vzrJw1rAgMBAAGjezB5MAkGA1Ud
EwQCMAAwLAYJYIZIAYb4QgENBB8WHU9wZW5TU0wgR2VuZXJhdGVkIENlcnRpZmlj
YXRlMB0GA1UdDgQWBBRU+KVXRNysrvhWWez95SqY1yuaTzAfBgNVHSMEGDAWgBTz
esHxqFOvx4hsN+LvBiCpYiQt4DANBgkqhkiG9w0BAQUFAAOBgQBw8SvZaApMc2a1
SuT7EUCm8bp5LnuKFkjIKBdjxyoDGmB8JNOsURnXECto8PhUFiifYso78plREJHa
4w6Y2IA3594T87b5co1J1UrJ+wrDj1buCJHgqh1RuFnezXQSnkSMiquC9QVYP9Rw
0bXYoJfySKLxEKJov5HhXYL7N3E49w==
-----END CERTIFICATE-----
