Certificate:
    Data:
        Version: 3 (0x2)
        Serial Number: 2 (0x2)
        Signature Algorithm: sha1WithRSAEncryption
        Issuer: CN=ca.localdomain, C=FR, ST=BdR, L=Aix, O=fD, OU=Tests
        Validity
            Not Before: Aug  3 04:54:20 2017 GMT
            Not After : Aug  3 04:54:20 2018 GMT
        Subject: C=FR, ST=BdR, O=fD, OU=Tests, CN=hss.localdomain
        Subject Public Key Info:
            Public Key Algorithm: rsaEncryption
            RSA Public Key: (1024 bit)
                Modulus (1024 bit):
                    00:bd:a9:08:9f:d5:53:42:bb:51:9e:61:98:4b:aa:
                    f1:71:c6:6a:30:3c:a5:45:76:9c:24:e4:55:cd:2a:
                    92:b1:97:79:00:22:12:75:14:29:4e:f1:9c:b1:a0:
                    59:27:6c:ca:7a:10:97:79:50:b3:f8:65:ca:ec:74:
                    b7:67:ae:99:e7:94:2a:87:1e:dd:e4:f6:37:54:bc:
                    17:28:e9:b3:aa:58:5a:b8:54:51:cd:f0:76:8e:56:
                    f6:90:de:c3:d4:e5:bb:66:66:ec:ca:87:65:74:d3:
                    90:28:0c:33:60:bd:13:cc:98:51:cb:a0:1b:2b:d9:
                    a9:b9:9b:da:cd:a4:3b:85:09
                Exponent: 65537 (0x10001)
        X509v3 extensions:
            X509v3 Basic Constraints: 
                CA:FALSE
            Netscape Comment: 
                OpenSSL Generated Certificate
            X509v3 Subject Key Identifier: 
                76:9D:60:37:35:54:58:87:D5:19:1C:64:8F:97:5A:99:99:60:27:7E
            X509v3 Authority Key Identifier: 
                keyid:5F:B1:04:57:9E:2D:7F:81:BA:37:44:DD:E2:A5:69:B7:DA:6D:AC:C3

    Signature Algorithm: sha1WithRSAEncryption
        31:2f:96:bb:26:84:78:27:12:a4:38:69:ea:13:16:dd:87:e2:
        76:d7:46:49:2d:2c:7a:8c:58:bb:37:de:4a:35:d9:aa:98:bf:
        0a:39:a3:1e:9c:91:73:92:71:a3:42:a8:b4:9a:f7:27:e0:3d:
        1c:4e:6f:b6:00:29:50:de:c5:6a:8e:6a:bf:6c:6d:19:5f:2d:
        28:6a:e1:43:89:da:78:70:f3:6c:1f:6e:19:a4:76:0e:ea:ae:
        c4:9f:67:9c:a1:39:f0:2b:1f:6e:8d:cd:0a:f7:8e:d1:30:59:
        af:fa:40:ba:97:6c:50:b5:8d:48:02:59:f4:bc:0e:65:c8:ce:
        d8:2b
-----BEGIN CERTIFICATE-----
MIICojCCAgugAwIBAgIBAjANBgkqhkiG9w0BAQUFADBfMRcwFQYDVQQDEw5jYS5s
b2NhbGRvbWFpbjELMAkGA1UEBhMCRlIxDDAKBgNVBAgTA0JkUjEMMAoGA1UEBxMD
QWl4MQswCQYDVQQKEwJmRDEOMAwGA1UECxMFVGVzdHMwHhcNMTcwODAzMDQ1NDIw
WhcNMTgwODAzMDQ1NDIwWjBSMQswCQYDVQQGEwJGUjEMMAoGA1UECBMDQmRSMQsw
CQYDVQQKEwJmRDEOMAwGA1UECxMFVGVzdHMxGDAWBgNVBAMTD2hzcy5sb2NhbGRv
bWFpbjCBnzANBgkqhkiG9w0BAQEFAAOBjQAwgYkCgYEAvakIn9VTQrtRnmGYS6rx
ccZqMDylRXacJORVzSqSsZd5ACISdRQpTvGcsaBZJ2zKehCXeVCz+GXK7HS3Z66Z
55Qqhx7d5PY3VLwXKOmzqlhauFRRzfB2jlb2kN7D1OW7ZmbsyodldNOQKAwzYL0T
zJhRy6AbK9mpuZvazaQ7hQkCAwEAAaN7MHkwCQYDVR0TBAIwADAsBglghkgBhvhC
AQ0EHxYdT3BlblNTTCBHZW5lcmF0ZWQgQ2VydGlmaWNhdGUwHQYDVR0OBBYEFHad
YDc1VFiH1RkcZI+XWpmZYCd+MB8GA1UdIwQYMBaAFF+xBFeeLX+BujdE3eKlabfa
bazDMA0GCSqGSIb3DQEBBQUAA4GBADEvlrsmhHgnEqQ4aeoTFt2H4nbXRkktLHqM
WLs33ko12aqYvwo5ox6ckXOScaNCqLSa9yfgPRxOb7YAKVDexWqOar9sbRlfLShq
4UOJ2nhw82wfbhmkdg7qrsSfZ5yhOfArH26NzQr3jtEwWa/6QLqXbFC1jUgCWfS8
DmXIztgr
-----END CERTIFICATE-----
