Certificate:
    Data:
        Version: 3 (0x2)
        Serial Number: 1 (0x1)
        Signature Algorithm: sha1WithRSAEncryption
        Issuer: CN=ca.localdomain, C=FR, ST=BdR, L=Aix, O=fD, OU=Tests
        Validity
            Not Before: Aug  3 04:54:20 2017 GMT
            Not After : Aug  3 04:54:20 2018 GMT
        Subject: C=FR, ST=BdR, O=fD, OU=Tests, CN=mme.localdomain
        Subject Public Key Info:
            Public Key Algorithm: rsaEncryption
            RSA Public Key: (1024 bit)
                Modulus (1024 bit):
                    00:c4:63:4d:ba:fe:d3:64:d9:71:1c:b2:b0:60:57:
                    30:e2:8c:1e:0e:e2:a2:9f:f1:f0:db:59:0b:28:16:
                    6c:6e:c5:e3:fb:4a:7e:0b:9e:79:42:c3:67:af:3b:
                    e5:20:6b:5f:8f:ae:46:77:14:8d:1d:ab:87:94:a2:
                    11:83:a4:ad:5f:40:d7:e3:1e:c1:63:90:c1:96:5a:
                    44:80:af:5c:0b:0c:25:6d:7d:6f:60:bd:31:7c:d5:
                    60:f6:70:a6:3c:a9:e9:b1:6a:88:14:14:72:be:00:
                    04:af:67:43:48:95:b7:71:e8:2d:0d:e2:9d:87:d7:
                    6e:0e:9f:7d:fa:84:70:92:fb
                Exponent: 65537 (0x10001)
        X509v3 extensions:
            X509v3 Basic Constraints: 
                CA:FALSE
            Netscape Comment: 
                OpenSSL Generated Certificate
            X509v3 Subject Key Identifier: 
                0A:97:EF:76:AD:81:D6:2E:52:A3:6F:6E:46:87:4B:55:A7:02:49:06
            X509v3 Authority Key Identifier: 
                keyid:5F:B1:04:57:9E:2D:7F:81:BA:37:44:DD:E2:A5:69:B7:DA:6D:AC:C3

    Signature Algorithm: sha1WithRSAEncryption
        be:9a:d5:ed:80:f8:03:1f:1c:eb:f9:e2:40:6c:55:4c:72:47:
        c5:0b:a6:27:5c:74:08:90:b5:a6:a0:f1:b6:39:be:f7:d5:1d:
        8c:a6:fe:90:12:8f:a7:26:3a:d7:7a:bb:f7:b1:ed:82:21:87:
        20:f8:d6:cb:f6:bc:82:1e:07:63:75:98:a4:98:6e:ca:19:03:
        34:c0:28:d7:0b:b5:23:c8:71:f6:0f:df:2f:fd:17:03:06:f6:
        91:47:7d:3c:85:a6:92:aa:fa:18:72:96:35:91:cd:4b:77:a5:
        71:5d:22:d2:8d:1d:23:09:9b:29:05:0a:69:ea:96:e1:5e:f5:
        a8:3f
-----BEGIN CERTIFICATE-----
MIICojCCAgugAwIBAgIBATANBgkqhkiG9w0BAQUFADBfMRcwFQYDVQQDEw5jYS5s
b2NhbGRvbWFpbjELMAkGA1UEBhMCRlIxDDAKBgNVBAgTA0JkUjEMMAoGA1UEBxMD
QWl4MQswCQYDVQQKEwJmRDEOMAwGA1UECxMFVGVzdHMwHhcNMTcwODAzMDQ1NDIw
WhcNMTgwODAzMDQ1NDIwWjBSMQswCQYDVQQGEwJGUjEMMAoGA1UECBMDQmRSMQsw
CQYDVQQKEwJmRDEOMAwGA1UECxMFVGVzdHMxGDAWBgNVBAMTD21tZS5sb2NhbGRv
bWFpbjCBnzANBgkqhkiG9w0BAQEFAAOBjQAwgYkCgYEAxGNNuv7TZNlxHLKwYFcw
4oweDuKin/Hw21kLKBZsbsXj+0p+C555QsNnrzvlIGtfj65GdxSNHauHlKIRg6St
X0DX4x7BY5DBllpEgK9cCwwlbX1vYL0xfNVg9nCmPKnpsWqIFBRyvgAEr2dDSJW3
cegtDeKdh9duDp99+oRwkvsCAwEAAaN7MHkwCQYDVR0TBAIwADAsBglghkgBhvhC
AQ0EHxYdT3BlblNTTCBHZW5lcmF0ZWQgQ2VydGlmaWNhdGUwHQYDVR0OBBYEFAqX
73atgdYuUqNvbkaHS1WnAkkGMB8GA1UdIwQYMBaAFF+xBFeeLX+BujdE3eKlabfa
bazDMA0GCSqGSIb3DQEBBQUAA4GBAL6a1e2A+AMfHOv54kBsVUxyR8ULpidcdAiQ
taag8bY5vvfVHYym/pASj6cmOtd6u/ex7YIhhyD41sv2vIIeB2N1mKSYbsoZAzTA
KNcLtSPIcfYP3y/9FwMG9pFHfTyFppKq+hhyljWRzUt3pXFdItKNHSMJmykFCmnq
luFe9ag/
-----END CERTIFICATE-----
