Certificate:
    Data:
        Version: 3 (0x2)
        Serial Number: 1 (0x1)
    Signature Algorithm: sha256WithRSAEncryption
        Issuer: CN=ca.localdomain, C=KO, ST=Seoul, L=Nowon, O=NextEPC, OU=Tests
        Validity
            Not Before: Aug 17 00:58:21 2018 GMT
            Not After : Aug 14 00:58:21 2028 GMT
        Subject: C=KO, ST=Seoul, O=NextEPC, OU=Tests, CN=mme.localdomain
        Subject Public Key Info:
            Public Key Algorithm: rsaEncryption
                Public-Key: (1024 bit)
                Modulus:
                    00:af:81:46:f0:74:9f:46:e0:e5:c1:35:2f:0b:4b:
                    fb:4c:ba:b4:6d:be:01:d5:2b:4c:ad:e0:06:ab:00:
                    c5:f4:be:db:fe:9d:7a:aa:32:81:98:06:47:b1:5b:
                    7b:cb:25:0a:54:f9:74:3f:10:57:05:1a:2f:d1:32:
                    8f:ad:21:dd:e1:f8:b4:fd:5d:67:d6:60:d2:d9:27:
                    2a:75:36:55:82:9f:ed:4c:6f:99:b5:43:14:9b:27:
                    83:2e:d6:05:ec:1e:8e:9e:b0:d1:84:83:49:20:fa:
                    5a:12:5d:6c:b7:79:6a:81:25:19:1b:db:36:cb:1b:
                    7d:3a:82:93:60:42:59:28:55
                Exponent: 65537 (0x10001)
        X509v3 extensions:
            X509v3 Basic Constraints: 
                CA:FALSE
            Netscape Comment: 
                OpenSSL Generated Certificate
            X509v3 Subject Key Identifier: 
                F9:F2:22:94:BC:0C:02:A3:CE:53:07:AA:55:FC:B8:17:B9:EC:A2:D4
            X509v3 Authority Key Identifier: 
                keyid:5E:12:26:BE:1D:E2:DF:28:D1:8D:08:CE:3D:FF:16:40:7E:18:44:AE

    Signature Algorithm: sha256WithRSAEncryption
         a8:23:e3:25:7d:ca:05:6d:d9:43:43:8d:88:de:86:1a:26:a8:
         24:6d:d2:3f:4e:b5:19:00:c4:0f:15:58:7c:e5:5d:b4:17:c8:
         93:ba:45:c9:9d:5a:e8:95:c2:a1:f5:b9:d0:2d:7b:0e:51:80:
         72:1f:bf:9b:ed:9a:40:4a:1e:0f:e1:45:4e:3f:6a:11:80:73:
         cf:70:d9:66:26:17:c6:c0:22:b2:de:da:70:21:48:37:5f:1a:
         9a:f5:60:36:cd:58:5e:88:c3:dc:c7:92:a4:74:f8:6b:ad:ba:
         c7:b7:de:00:51:67:72:5c:ca:f3:aa:a8:9b:ff:15:71:3b:e6:
         75:53
-----BEGIN CERTIFICATE-----
MIICsjCCAhugAwIBAgIBATANBgkqhkiG9w0BAQsFADBoMRcwFQYDVQQDDA5jYS5s
b2NhbGRvbWFpbjELMAkGA1UEBhMCS08xDjAMBgNVBAgMBVNlb3VsMQ4wDAYDVQQH
DAVOb3dvbjEQMA4GA1UECgwHTmV4dEVQQzEOMAwGA1UECwwFVGVzdHMwHhcNMTgw
ODE3MDA1ODIxWhcNMjgwODE0MDA1ODIxWjBZMQswCQYDVQQGEwJLTzEOMAwGA1UE
CAwFU2VvdWwxEDAOBgNVBAoMB05leHRFUEMxDjAMBgNVBAsMBVRlc3RzMRgwFgYD
VQQDDA9tbWUubG9jYWxkb21haW4wgZ8wDQYJKoZIhvcNAQEBBQADgY0AMIGJAoGB
AK+BRvB0n0bg5cE1LwtL+0y6tG2+AdUrTK3gBqsAxfS+2/6deqoygZgGR7Fbe8sl
ClT5dD8QVwUaL9Eyj60h3eH4tP1dZ9Zg0tknKnU2VYKf7UxvmbVDFJsngy7WBewe
jp6w0YSDSSD6WhJdbLd5aoElGRvbNssbfTqCk2BCWShVAgMBAAGjezB5MAkGA1Ud
EwQCMAAwLAYJYIZIAYb4QgENBB8WHU9wZW5TU0wgR2VuZXJhdGVkIENlcnRpZmlj
YXRlMB0GA1UdDgQWBBT58iKUvAwCo85TB6pV/LgXueyi1DAfBgNVHSMEGDAWgBRe
Eia+HeLfKNGNCM49/xZAfhhErjANBgkqhkiG9w0BAQsFAAOBgQCoI+MlfcoFbdlD
Q42I3oYaJqgkbdI/TrUZAMQPFVh85V20F8iTukXJnVrolcKh9bnQLXsOUYByH7+b
7ZpASh4P4UVOP2oRgHPPcNlmJhfGwCKy3tpwIUg3Xxqa9WA2zVheiMPcx5KkdPhr
rbrHt94AUWdyXMrzqqib/xVxO+Z1Uw==
-----END CERTIFICATE-----
