Certificate:
    Data:
        Version: 3 (0x2)
        Serial Number: 1 (0x1)
        Signature Algorithm: sha1WithRSAEncryption
        Issuer: CN=ca.localdomain, C=KO, ST=Seoul, L=Nowon, O=NextEPC, OU=Tests
        Validity
            Not Before: Aug 16 13:40:41 2017 GMT
            Not After : Aug 16 13:40:41 2018 GMT
        Subject: C=KO, ST=Seoul, O=NextEPC, OU=Tests, CN=mme.localdomain
        Subject Public Key Info:
            Public Key Algorithm: rsaEncryption
            RSA Public Key: (1024 bit)
                Modulus (1024 bit):
                    00:c1:af:23:ba:b8:79:38:c2:47:12:94:3f:2a:6c:
                    0d:6b:46:6d:1e:12:16:9a:e2:fc:0d:8e:a8:3a:0a:
                    d7:21:14:8a:ef:d5:c5:b0:29:00:64:be:5e:66:a7:
                    50:7b:56:74:10:61:54:db:0f:ba:bc:39:1c:14:66:
                    39:b1:c5:43:75:60:b5:7e:ba:d7:bb:49:28:56:1d:
                    e2:f5:ef:de:74:d4:ce:df:e3:bf:09:1e:19:88:47:
                    9f:a4:8c:96:1e:a6:aa:00:a4:e3:76:fd:d3:0f:b8:
                    90:66:fd:14:96:d6:fc:92:b2:80:de:ca:93:54:fe:
                    19:57:90:e0:51:33:a1:59:2f
                Exponent: 65537 (0x10001)
        X509v3 extensions:
            X509v3 Basic Constraints: 
                CA:FALSE
            Netscape Comment: 
                OpenSSL Generated Certificate
            X509v3 Subject Key Identifier: 
                4B:02:5E:40:00:AF:E8:2D:0A:31:C3:73:28:65:19:9A:60:53:0E:28
            X509v3 Authority Key Identifier: 
                keyid:F3:7A:C1:F1:A8:53:AF:C7:88:6C:37:E2:EF:06:20:A9:62:24:2D:E0

    Signature Algorithm: sha1WithRSAEncryption
        45:0b:45:91:d4:91:32:45:48:23:5c:c2:cd:2d:f0:b9:36:41:
        10:d5:34:d4:9a:0e:61:c4:39:d1:a6:87:04:bd:a4:27:01:9a:
        2c:d8:0e:a9:4c:21:a7:dc:6b:2d:68:63:eb:50:f7:d3:c0:54:
        ad:d4:cf:0a:c2:82:d2:1f:3c:61:86:58:72:74:ab:ef:29:1a:
        33:73:9a:5e:75:78:46:21:58:3f:6d:5d:96:cc:ff:0b:d4:84:
        8b:9e:f7:f8:77:5e:37:7e:48:c9:a3:b5:6f:61:b3:10:bf:42:
        d2:2d:f7:5f:c4:15:96:65:6a:14:9d:c5:a1:0f:86:02:7a:14:
        65:06
-----BEGIN CERTIFICATE-----
MIICsjCCAhugAwIBAgIBATANBgkqhkiG9w0BAQUFADBoMRcwFQYDVQQDEw5jYS5s
b2NhbGRvbWFpbjELMAkGA1UEBhMCS08xDjAMBgNVBAgTBVNlb3VsMQ4wDAYDVQQH
EwVOb3dvbjEQMA4GA1UEChMHTmV4dEVQQzEOMAwGA1UECxMFVGVzdHMwHhcNMTcw
ODE2MTM0MDQxWhcNMTgwODE2MTM0MDQxWjBZMQswCQYDVQQGEwJLTzEOMAwGA1UE
CBMFU2VvdWwxEDAOBgNVBAoTB05leHRFUEMxDjAMBgNVBAsTBVRlc3RzMRgwFgYD
VQQDEw9tbWUubG9jYWxkb21haW4wgZ8wDQYJKoZIhvcNAQEBBQADgY0AMIGJAoGB
AMGvI7q4eTjCRxKUPypsDWtGbR4SFpri/A2OqDoK1yEUiu/VxbApAGS+XmanUHtW
dBBhVNsPurw5HBRmObHFQ3VgtX6617tJKFYd4vXv3nTUzt/jvwkeGYhHn6SMlh6m
qgCk43b90w+4kGb9FJbW/JKygN7Kk1T+GVeQ4FEzoVkvAgMBAAGjezB5MAkGA1Ud
EwQCMAAwLAYJYIZIAYb4QgENBB8WHU9wZW5TU0wgR2VuZXJhdGVkIENlcnRpZmlj
YXRlMB0GA1UdDgQWBBRLAl5AAK/oLQoxw3MoZRmaYFMOKDAfBgNVHSMEGDAWgBTz
esHxqFOvx4hsN+LvBiCpYiQt4DANBgkqhkiG9w0BAQUFAAOBgQBFC0WR1JEyRUgj
XMLNLfC5NkEQ1TTUmg5hxDnRpocEvaQnAZos2A6pTCGn3GstaGPrUPfTwFSt1M8K
woLSHzxhhlhydKvvKRozc5pedXhGIVg/bV2WzP8L1ISLnvf4d143fkjJo7VvYbMQ
v0LSLfdfxBWWZWoUncWhD4YCehRlBg==
-----END CERTIFICATE-----
