Certificate:
    Data:
        Version: 3 (0x2)
        Serial Number: 4 (0x4)
        Signature Algorithm: sha1WithRSAEncryption
        Issuer: CN=ca.localdomain, C=KO, ST=Seoul, L=Nowon, O=NextEPC, OU=Tests
        Validity
            Not Before: Aug 16 13:40:42 2017 GMT
            Not After : Aug 16 13:40:42 2018 GMT
        Subject: C=KO, ST=Seoul, O=NextEPC, OU=Tests, CN=pcrf.localdomain
        Subject Public Key Info:
            Public Key Algorithm: rsaEncryption
            RSA Public Key: (1024 bit)
                Modulus (1024 bit):
                    00:ae:71:a8:de:88:34:b7:44:e8:a4:03:9a:c5:d8:
                    34:25:af:e1:92:35:95:b6:10:34:94:51:7f:d6:4e:
                    12:2a:50:aa:aa:29:21:4b:ad:1a:35:94:12:37:82:
                    b1:4b:80:04:fd:59:ed:2a:98:e5:28:a8:7a:40:dc:
                    46:a2:16:57:66:c5:94:35:ce:f7:1e:ba:19:ae:bc:
                    70:05:5d:27:e3:12:31:ac:76:e5:57:bf:f9:56:e1:
                    5c:13:0c:bb:16:11:cc:73:97:f9:3c:7a:a7:d5:b5:
                    cc:24:ff:ab:53:6b:ce:66:c9:b8:cc:6e:0d:6b:81:
                    95:84:e5:ab:c4:b3:70:dc:0b
                Exponent: 65537 (0x10001)
        X509v3 extensions:
            X509v3 Basic Constraints: 
                CA:FALSE
            Netscape Comment: 
                OpenSSL Generated Certificate
            X509v3 Subject Key Identifier: 
                2E:F7:30:CE:5B:68:2C:8D:58:1E:A0:23:16:14:70:F6:68:6E:05:C5
            X509v3 Authority Key Identifier: 
                keyid:F3:7A:C1:F1:A8:53:AF:C7:88:6C:37:E2:EF:06:20:A9:62:24:2D:E0

    Signature Algorithm: sha1WithRSAEncryption
        53:4d:74:e1:a9:e5:15:5d:a2:d2:65:d9:06:3a:7e:1a:90:71:
        a7:14:d6:82:a9:f5:1d:55:4b:5a:9b:ee:a4:68:e0:1c:42:88:
        5e:89:39:77:6c:2a:46:55:37:b4:ac:ad:f7:f8:e3:05:6d:bc:
        a8:4b:80:51:d2:7f:ab:bc:ae:d6:cd:24:94:b5:64:11:17:10:
        28:93:05:34:1b:93:bf:fd:97:cd:0f:fd:0a:b1:1f:e7:00:17:
        2b:49:03:6e:e4:62:57:b7:36:74:53:6c:7b:0f:85:49:56:88:
        66:fd:af:9c:52:3a:8f:35:9e:2f:fd:47:16:be:f8:c0:cc:25:
        6a:f2
-----BEGIN CERTIFICATE-----
MIICszCCAhygAwIBAgIBBDANBgkqhkiG9w0BAQUFADBoMRcwFQYDVQQDEw5jYS5s
b2NhbGRvbWFpbjELMAkGA1UEBhMCS08xDjAMBgNVBAgTBVNlb3VsMQ4wDAYDVQQH
EwVOb3dvbjEQMA4GA1UEChMHTmV4dEVQQzEOMAwGA1UECxMFVGVzdHMwHhcNMTcw
ODE2MTM0MDQyWhcNMTgwODE2MTM0MDQyWjBaMQswCQYDVQQGEwJLTzEOMAwGA1UE
CBMFU2VvdWwxEDAOBgNVBAoTB05leHRFUEMxDjAMBgNVBAsTBVRlc3RzMRkwFwYD
VQQDExBwY3JmLmxvY2FsZG9tYWluMIGfMA0GCSqGSIb3DQEBAQUAA4GNADCBiQKB
gQCucajeiDS3ROikA5rF2DQlr+GSNZW2EDSUUX/WThIqUKqqKSFLrRo1lBI3grFL
gAT9We0qmOUoqHpA3EaiFldmxZQ1zvceuhmuvHAFXSfjEjGsduVXv/lW4VwTDLsW
Ecxzl/k8eqfVtcwk/6tTa85mybjMbg1rgZWE5avEs3DcCwIDAQABo3sweTAJBgNV
HRMEAjAAMCwGCWCGSAGG+EIBDQQfFh1PcGVuU1NMIEdlbmVyYXRlZCBDZXJ0aWZp
Y2F0ZTAdBgNVHQ4EFgQULvcwzltoLI1YHqAjFhRw9mhuBcUwHwYDVR0jBBgwFoAU
83rB8ahTr8eIbDfi7wYgqWIkLeAwDQYJKoZIhvcNAQEFBQADgYEAU0104anlFV2i
0mXZBjp+GpBxpxTWgqn1HVVLWpvupGjgHEKIXok5d2wqRlU3tKyt9/jjBW28qEuA
UdJ/q7yu1s0klLVkERcQKJMFNBuTv/2XzQ/9CrEf5wAXK0kDbuRiV7c2dFNsew+F
SVaIZv2vnFI6jzWeL/1HFr74wMwlavI=
-----END CERTIFICATE-----
