Certificate:
    Data:
        Version: 3 (0x2)
        Serial Number: 4 (0x4)
    Signature Algorithm: sha256WithRSAEncryption
        Issuer: CN=ca.localdomain, C=KO, ST=Seoul, L=Nowon, O=NextEPC, OU=Tests
        Validity
            Not Before: Aug 17 00:58:21 2018 GMT
            Not After : Aug 14 00:58:21 2028 GMT
        Subject: C=KO, ST=Seoul, O=NextEPC, OU=Tests, CN=pcrf.localdomain
        Subject Public Key Info:
            Public Key Algorithm: rsaEncryption
                Public-Key: (1024 bit)
                Modulus:
                    00:bf:fc:c9:c1:5d:17:84:70:15:bb:f5:ee:be:61:
                    aa:fe:65:ae:0d:93:1f:5c:42:75:71:3b:4b:06:5a:
                    18:d7:46:05:be:a0:0e:c9:b8:1c:22:d0:49:71:c2:
                    55:21:7a:d1:15:91:d7:45:19:4a:44:de:fd:28:47:
                    ec:e3:ea:36:7e:bc:bb:c3:50:6b:ae:9e:00:5e:5d:
                    7c:bf:65:ca:8a:1d:a7:6c:40:4e:7c:e6:74:88:8f:
                    2a:f5:2e:f3:77:55:7a:72:ce:e6:5a:ef:db:1b:ef:
                    47:8f:86:f5:4d:9d:ce:66:52:83:5d:73:d7:71:a7:
                    ab:74:a5:c3:88:15:2c:e3:4d
                Exponent: 65537 (0x10001)
        X509v3 extensions:
            X509v3 Basic Constraints: 
                CA:FALSE
            Netscape Comment: 
                OpenSSL Generated Certificate
            X509v3 Subject Key Identifier: 
                1C:27:03:08:96:FD:B9:5F:EE:90:A7:B4:CD:E8:EB:A1:AB:B6:21:1D
            X509v3 Authority Key Identifier: 
                keyid:5E:12:26:BE:1D:E2:DF:28:D1:8D:08:CE:3D:FF:16:40:7E:18:44:AE

    Signature Algorithm: sha256WithRSAEncryption
         10:b7:d1:be:d7:2f:ac:a8:58:95:3a:83:a9:9e:8e:46:7d:7e:
         12:34:1b:3d:5e:39:e7:fb:b8:66:3e:3d:ce:fb:10:bf:2a:ec:
         f6:e6:76:28:47:56:0d:fb:98:df:d9:e1:dd:bb:30:05:60:06:
         3e:38:63:af:06:67:9a:4d:7d:29:20:d9:2b:88:50:c9:a0:52:
         b2:27:0c:2f:b7:be:a3:dc:51:93:a9:c5:43:99:a3:70:5e:11:
         a6:92:ec:e2:92:1a:17:fd:f5:c8:ed:2f:fa:cf:1d:3a:ad:ee:
         5c:9a:54:1f:82:64:23:ee:52:af:8d:1c:7e:e6:1a:ec:72:c6:
         af:f0
-----BEGIN CERTIFICATE-----
MIICszCCAhygAwIBAgIBBDANBgkqhkiG9w0BAQsFADBoMRcwFQYDVQQDDA5jYS5s
b2NhbGRvbWFpbjELMAkGA1UEBhMCS08xDjAMBgNVBAgMBVNlb3VsMQ4wDAYDVQQH
DAVOb3dvbjEQMA4GA1UECgwHTmV4dEVQQzEOMAwGA1UECwwFVGVzdHMwHhcNMTgw
ODE3MDA1ODIxWhcNMjgwODE0MDA1ODIxWjBaMQswCQYDVQQGEwJLTzEOMAwGA1UE
CAwFU2VvdWwxEDAOBgNVBAoMB05leHRFUEMxDjAMBgNVBAsMBVRlc3RzMRkwFwYD
VQQDDBBwY3JmLmxvY2FsZG9tYWluMIGfMA0GCSqGSIb3DQEBAQUAA4GNADCBiQKB
gQC//MnBXReEcBW79e6+Yar+Za4Nkx9cQnVxO0sGWhjXRgW+oA7JuBwi0ElxwlUh
etEVkddFGUpE3v0oR+zj6jZ+vLvDUGuungBeXXy/ZcqKHadsQE585nSIjyr1LvN3
VXpyzuZa79sb70ePhvVNnc5mUoNdc9dxp6t0pcOIFSzjTQIDAQABo3sweTAJBgNV
HRMEAjAAMCwGCWCGSAGG+EIBDQQfFh1PcGVuU1NMIEdlbmVyYXRlZCBDZXJ0aWZp
Y2F0ZTAdBgNVHQ4EFgQUHCcDCJb9uV/ukKe0zejroau2IR0wHwYDVR0jBBgwFoAU
XhImvh3i3yjRjQjOPf8WQH4YRK4wDQYJKoZIhvcNAQELBQADgYEAELfRvtcvrKhY
lTqDqZ6ORn1+EjQbPV455/u4Zj49zvsQvyrs9uZ2KEdWDfuY39nh3bswBWAGPjhj
rwZnmk19KSDZK4hQyaBSsicML7e+o9xRk6nFQ5mjcF4RppLs4pIaF/31yO0v+s8d
Oq3uXJpUH4JkI+5Sr40cfuYa7HLGr/A=
-----END CERTIFICATE-----
