Certificate:
    Data:
        Version: 3 (0x2)
        Serial Number: 3 (0x3)
    Signature Algorithm: sha256WithRSAEncryption
        Issuer: CN=ca.localdomain, C=KO, ST=Seoul, L=Nowon, O=NextEPC, OU=Tests
        Validity
            Not Before: Aug 17 00:58:21 2018 GMT
            Not After : Aug 14 00:58:21 2028 GMT
        Subject: C=KO, ST=Seoul, O=NextEPC, OU=Tests, CN=pgw.localdomain
        Subject Public Key Info:
            Public Key Algorithm: rsaEncryption
                Public-Key: (1024 bit)
                Modulus:
                    00:ae:db:dc:af:a4:f7:f1:da:e0:34:3c:ff:9e:60:
                    12:b5:05:ce:5c:b3:5f:80:12:99:48:41:94:cd:87:
                    64:f0:17:e0:2f:83:ab:cb:dc:83:59:f2:fa:1f:e3:
                    d2:72:9b:b8:65:63:38:80:50:69:0e:6e:66:02:b5:
                    19:7a:81:62:0a:63:34:4b:3a:11:46:06:42:9e:89:
                    f0:a5:a4:3e:74:00:c3:62:32:32:b4:d8:41:b0:15:
                    e4:eb:c7:1f:b3:ea:7b:5e:03:c8:44:4a:a1:35:9f:
                    b1:3c:a5:e0:83:d8:ff:6c:6f:45:5b:eb:9e:4b:cb:
                    a0:42:88:8d:81:ea:c7:4a:cd
                Exponent: 65537 (0x10001)
        X509v3 extensions:
            X509v3 Basic Constraints: 
                CA:FALSE
            Netscape Comment: 
                OpenSSL Generated Certificate
            X509v3 Subject Key Identifier: 
                F3:FE:FA:87:88:75:6B:4E:94:73:D8:2A:A4:EC:79:13:91:D4:62:F8
            X509v3 Authority Key Identifier: 
                keyid:5E:12:26:BE:1D:E2:DF:28:D1:8D:08:CE:3D:FF:16:40:7E:18:44:AE

    Signature Algorithm: sha256WithRSAEncryption
         ad:13:60:47:a5:23:13:d9:5e:14:24:cb:ec:4f:4b:e2:41:55:
         b5:79:a6:b5:de:05:24:87:05:51:ed:c6:7c:9a:65:b8:7a:bd:
         fd:ee:92:98:38:97:29:6f:e2:f3:a7:48:7a:77:d9:7d:22:d1:
         6d:0e:61:49:e7:e1:72:d9:9a:b2:d8:ef:9b:3a:b2:71:37:43:
         6d:0d:de:84:48:c4:e6:6c:cb:7c:05:8c:af:26:cf:aa:2b:e1:
         d7:f2:65:f8:0d:45:33:ec:b7:9a:2a:bf:16:f1:4f:76:c7:2a:
         1d:14:f4:9a:30:14:8d:72:30:e7:f4:9c:1e:09:34:5b:79:26:
         4a:d9
-----BEGIN CERTIFICATE-----
MIICsjCCAhugAwIBAgIBAzANBgkqhkiG9w0BAQsFADBoMRcwFQYDVQQDDA5jYS5s
b2NhbGRvbWFpbjELMAkGA1UEBhMCS08xDjAMBgNVBAgMBVNlb3VsMQ4wDAYDVQQH
DAVOb3dvbjEQMA4GA1UECgwHTmV4dEVQQzEOMAwGA1UECwwFVGVzdHMwHhcNMTgw
ODE3MDA1ODIxWhcNMjgwODE0MDA1ODIxWjBZMQswCQYDVQQGEwJLTzEOMAwGA1UE
CAwFU2VvdWwxEDAOBgNVBAoMB05leHRFUEMxDjAMBgNVBAsMBVRlc3RzMRgwFgYD
VQQDDA9wZ3cubG9jYWxkb21haW4wgZ8wDQYJKoZIhvcNAQEBBQADgY0AMIGJAoGB
AK7b3K+k9/Ha4DQ8/55gErUFzlyzX4ASmUhBlM2HZPAX4C+Dq8vcg1ny+h/j0nKb
uGVjOIBQaQ5uZgK1GXqBYgpjNEs6EUYGQp6J8KWkPnQAw2IyMrTYQbAV5OvHH7Pq
e14DyERKoTWfsTyl4IPY/2xvRVvrnkvLoEKIjYHqx0rNAgMBAAGjezB5MAkGA1Ud
EwQCMAAwLAYJYIZIAYb4QgENBB8WHU9wZW5TU0wgR2VuZXJhdGVkIENlcnRpZmlj
YXRlMB0GA1UdDgQWBBTz/vqHiHVrTpRz2Cqk7HkTkdRi+DAfBgNVHSMEGDAWgBRe
Eia+HeLfKNGNCM49/xZAfhhErjANBgkqhkiG9w0BAQsFAAOBgQCtE2BHpSMT2V4U
JMvsT0viQVW1eaa13gUkhwVR7cZ8mmW4er397pKYOJcpb+Lzp0h6d9l9ItFtDmFJ
5+Fy2Zqy2O+bOrJxN0NtDd6ESMTmbMt8BYyvJs+qK+HX8mX4DUUz7LeaKr8W8U92
xyodFPSaMBSNcjDn9JweCTRbeSZK2Q==
-----END CERTIFICATE-----
