Certificate:
    Data:
        Version: 3 (0x2)
        Serial Number: 3 (0x3)
        Signature Algorithm: sha1WithRSAEncryption
        Issuer: CN=ca.localdomain, C=KO, ST=Seoul, L=Nowon, O=NextEPC, OU=Tests
        Validity
            Not Before: Aug 16 13:40:42 2017 GMT
            Not After : Aug 16 13:40:42 2018 GMT
        Subject: C=KO, ST=Seoul, O=NextEPC, OU=Tests, CN=pgw.localdomain
        Subject Public Key Info:
            Public Key Algorithm: rsaEncryption
            RSA Public Key: (1024 bit)
                Modulus (1024 bit):
                    00:ae:d6:4d:b2:79:12:7d:84:56:8d:3e:ca:e5:3b:
                    b2:7d:68:cb:f7:0a:5a:ce:76:fe:b0:26:f1:91:ba:
                    90:50:f4:ba:41:ef:32:f9:fe:43:da:6d:0e:7d:66:
                    a3:8e:04:0c:a3:56:f2:7a:e4:73:ca:3e:e1:8e:50:
                    77:ce:3e:11:be:36:84:8e:63:c0:4e:c6:3d:f9:69:
                    c2:3e:21:a5:34:6e:f6:c7:31:30:d3:2f:1f:83:a9:
                    c3:53:93:81:9f:54:f6:5c:ec:8d:19:29:b4:7c:76:
                    90:0a:98:dd:a0:52:cf:0f:de:22:ec:d3:9d:4e:82:
                    4f:bd:4c:99:28:a9:07:62:61
                Exponent: 65537 (0x10001)
        X509v3 extensions:
            X509v3 Basic Constraints: 
                CA:FALSE
            Netscape Comment: 
                OpenSSL Generated Certificate
            X509v3 Subject Key Identifier: 
                0E:7B:C8:6B:CC:82:7D:20:82:1E:3B:AB:5F:C5:0E:5E:E6:E1:80:9B
            X509v3 Authority Key Identifier: 
                keyid:F3:7A:C1:F1:A8:53:AF:C7:88:6C:37:E2:EF:06:20:A9:62:24:2D:E0

    Signature Algorithm: sha1WithRSAEncryption
        94:f5:71:a5:6c:d2:29:18:2a:43:80:a0:39:b2:97:f0:62:d5:
        16:a6:d3:34:9b:be:02:74:e4:23:25:d7:f9:25:23:83:a1:54:
        6b:26:38:ef:22:7e:57:9c:1a:98:65:8b:f5:99:83:87:f8:7b:
        2f:de:c3:cc:2b:e6:67:84:bf:b6:2d:86:86:49:d6:d8:17:39:
        94:03:e6:77:48:75:79:87:d5:7a:27:8b:aa:6d:6d:c0:8a:8a:
        d2:39:55:18:6c:1f:73:3b:fa:0b:3e:aa:6f:e0:0d:16:48:cc:
        e2:b8:f0:5c:61:67:9e:0c:91:fc:62:d3:8a:62:af:5d:59:0f:
        29:a6
-----BEGIN CERTIFICATE-----
MIICsjCCAhugAwIBAgIBAzANBgkqhkiG9w0BAQUFADBoMRcwFQYDVQQDEw5jYS5s
b2NhbGRvbWFpbjELMAkGA1UEBhMCS08xDjAMBgNVBAgTBVNlb3VsMQ4wDAYDVQQH
EwVOb3dvbjEQMA4GA1UEChMHTmV4dEVQQzEOMAwGA1UECxMFVGVzdHMwHhcNMTcw
ODE2MTM0MDQyWhcNMTgwODE2MTM0MDQyWjBZMQswCQYDVQQGEwJLTzEOMAwGA1UE
CBMFU2VvdWwxEDAOBgNVBAoTB05leHRFUEMxDjAMBgNVBAsTBVRlc3RzMRgwFgYD
VQQDEw9wZ3cubG9jYWxkb21haW4wgZ8wDQYJKoZIhvcNAQEBBQADgY0AMIGJAoGB
AK7WTbJ5En2EVo0+yuU7sn1oy/cKWs52/rAm8ZG6kFD0ukHvMvn+Q9ptDn1mo44E
DKNW8nrkc8o+4Y5Qd84+Eb42hI5jwE7GPflpwj4hpTRu9scxMNMvH4Opw1OTgZ9U
9lzsjRkptHx2kAqY3aBSzw/eIuzTnU6CT71MmSipB2JhAgMBAAGjezB5MAkGA1Ud
EwQCMAAwLAYJYIZIAYb4QgENBB8WHU9wZW5TU0wgR2VuZXJhdGVkIENlcnRpZmlj
YXRlMB0GA1UdDgQWBBQOe8hrzIJ9IIIeO6tfxQ5e5uGAmzAfBgNVHSMEGDAWgBTz
esHxqFOvx4hsN+LvBiCpYiQt4DANBgkqhkiG9w0BAQUFAAOBgQCU9XGlbNIpGCpD
gKA5spfwYtUWptM0m74CdOQjJdf5JSODoVRrJjjvIn5XnBqYZYv1mYOH+Hsv3sPM
K+ZnhL+2LYaGSdbYFzmUA+Z3SHV5h9V6J4uqbW3AiorSOVUYbB9zO/oLPqpv4A0W
SMziuPBcYWeeDJH8YtOKYq9dWQ8ppg==
-----END CERTIFICATE-----
